(dp1
S'wuts'
p2
S"what's"
p3
sS'nter'
p4
S'enter'
p5
sS'wut'
p6
S'what'
p7
sS'app'
p8
S'application'
p9
sS'pic'
p10
S'picture'
p11
sS'rofl'
p12
S'rolling on floor laughing'
p13
sS'gg'
p14
S'good game'
p15
sS'gn'
p16
S'good night'
p17
sS'w/e'
p18
S'whatever'
p19
sS'myob'
p20
S'mind your own business'
p21
sS'b4'
p22
S'before'
p23
sS'brb'
p24
S'be right back'
p25
sS'nbd'
p26
S'no big deal'
p27
sS'bbl'
p28
S'be back later'
p29
sS'atm'
p30
S'at the moment'
p31
sS'bff'
p32
S'best friend forever'
p33
sS'gtg'
p34
S'got to go'
p35
sS'tldr'
p36
S"too long; didn't read"
p37
sS'ttyl'
p38
S'talk to you later'
p39
sS'cuz'
p40
S'because'
p41
sS'lol'
p42
S'laughing out loud'
p43
sS'sup'
p44
S"what's up?"
p45
sS'msg'
p46
S'message'
p47
sS'cuzz'
p48
S'because'
p49
sS'm8'
p50
S'mate'
p51
sS'nw'
p52
S'no way!'
p53
sS'ikr'
p54
S'i know right'
p55
sS'yolo'
p56
S'you only live once'
p57
sS'omg'
p58
S'oh my gosh'
p59
sS'asap'
p60
S'as soon as possible'
p61
sS'bday'
p62
S'birthday'
p63
sS'fyi'
p64
S'for your information'
p65
sS'plz'
p66
S'please'
p67
sS'np'
p68
S'no problem'
p69
sS'cya'
p70
S'see you'
p71
sS'jk'
p72
S'just kidding'
p73
sS'rus'
p74
S'are you serious?'
p75
sS'hf'
p76
S'have fun'
p77
sS'tisnf'
p78
S'this is not fair'
p79
sS'njoy'
p80
S'enjoy'
p81
sS'sry'
p82
S'sorry'
p83
sS'dunno'
p84
S"don't know"
p85
sS'k'
S'okay'
p86
sS'afk'
p87
S'away from keyboard'
p88
sS'g2g'
p89
S'got to go'
p90
sS'r'
S'are'
p91
sS'u'
S'you'
p92
sS'idk'
p93
S"I don't know"
p94
sS'1ce'
p95
S'once'
p96
sS'y'
S'why'
p97
sS'aka'
p98
S'also known as'
p99
sS'sux'
p100
S'sucks'
p101
sS'l8'
p102
S'late'
p103
s.