(dp1
S'limited'
p2
(lp3
S'ac/dc'
p4
aS'amazon prime'
p5
asS'todays'
p6
(lp7
S'@microsoft'
p8
asS'applewatch'
p9
(lp10
S'apple'
p11
aS'apple watch'
p12
asS'magnetic'
p13
(lp14
g4
asS'child'
p15
(lp16
S'amazon'
p17
aS'angela merkel'
p18
aS'ant-man'
p19
asS'four'
p20
(lp21
g8
ag19
asS'syriza'
p22
(lp23
g18
asS'sleep'
p24
(lp25
g4
aS'amazon prime day'
p26
aS'amy schumer'
p27
ag19
asS'consists'
p28
(lp29
g27
asS'appetite'
p30
(lp31
g26
asS'saved'
p32
(lp33
g17
asS'deport'
p34
(lp35
g18
asS'consider'
p36
(lp37
g26
ag18
ag19
asS'increase'
p38
(lp39
g17
asS'worser'
p40
(lp41
g12
asS'aug'
p42
(lp43
g8
ag4
ag17
ag5
ag26
ag27
ag18
ag19
ag11
ag12
asS'eligible'
p44
(lp45
g26
asS'electricity'
p46
(lp47
g4
asS'tweet'
p48
(lp49
g4
ag26
ag19
ag11
asS'cinemark'
p50
(lp51
g19
asS'bike'
p52
(lp53
g5
asS'laci'
p54
(lp55
g8
ag27
asS'sorry'
p56
(lp57
g19
asS'worth'
p58
(lp59
g8
ag17
ag5
ag26
ag19
ag11
asS'updated'
p60
(lp61
g17
ag26
asS'amorous'
p62
(lp63
g17
asS'rescue'
p64
(lp65
g5
asS'sizzlerkistler'
p66
(lp67
g19
asS'rise'
p68
(lp69
g8
ag17
ag5
ag19
asS'dell'
p70
(lp71
g8
asS'sellers'
p72
(lp73
g17
asS'beyonseh'
p74
(lp75
g5
asS'every'
p76
(lp77
g8
ag4
ag17
ag26
ag27
ag18
ag19
ag11
ag12
asS'updates'
p78
(lp79
g8
ag27
ag11
asS'blasters'
p80
(lp81
g5
asS'reforms'
p82
(lp83
g18
asS'disruptions'
p84
(lp85
g11
asS'lumia'
p86
(lp87
g8
asS'annkillion'
p88
(lp89
g4
asS'tickets'
p90
(lp91
g4
ag27
ag19
asS'school'
p92
(lp93
g8
ag4
ag17
ag19
asS'skills'
p94
(lp95
g17
asS'wednesday'
p96
(lp97
g8
ag4
ag5
ag26
ag27
ag18
ag19
ag11
ag12
asS'unrelated'
p98
(lp99
g19
asS'announced'
p100
(lp101
g5
ag11
ag12
asS'cmx'
p102
(lp103
g19
asS'stereotypical'
p104
(lp105
g27
asS'monologue'
p106
(lp107
g27
asS'reinvent'
p108
(lp109
g8
asS'pst'
p110
(lp111
g19
ag11
asS'heading'
p112
(lp113
g4
asS'clothes'
p114
(lp115
g19
asS'enjoy'
p116
(lp117
g8
ag5
ag26
ag19
asS'bill'
p118
(lp119
g8
ag19
ag11
asS'force'
p120
(lp121
g5
ag26
ag18
ag19
ag11
asS'nigh'
p122
(lp123
g4
ag17
ag5
ag26
ag27
ag19
ag11
asS'tired'
p124
(lp125
g4
asS'phones'
p126
(lp127
g8
ag11
ag12
asS'paulaedwyer'
p128
(lp129
g18
asS'horn'
p130
(lp131
g19
asS'feasibility'
p132
(lp133
g8
asS'second'
p134
(lp135
g4
ag26
ag19
asS'virtualization'
p136
(lp137
g12
asS'thebenshi'
p138
(lp139
g17
asS'razer'
p140
(lp141
g17
asS'blue'
p142
(lp143
g8
ag26
ag19
ag11
asS'errors'
p144
(lp145
g8
asS'christ'
p146
(lp147
g26
ag27
asS'wreck'
p148
(lp149
g27
ag19
asS'hate'
p150
(lp151
g26
ag27
ag19
ag11
asS'cooking'
p152
(lp153
g17
asS'revolutionize'
p154
(lp155
g12
asS'kent'
p156
(lp157
g8
ag27
asS'victims'
p158
(lp159
g18
asS'lights'
p160
(lp161
g27
ag11
asS'selena'
p162
(lp163
g27
asS'conduct'
p164
(lp165
g18
asS'new'
p166
(lp167
g8
ag4
ag17
ag5
ag26
ag27
ag18
ag19
ag11
ag12
asS'tips'
p168
(lp169
g26
asS'ffshoes'
p170
(lp171
g27
asS'ever'
p172
(lp173
g8
ag4
ag17
ag5
ag26
ag27
ag18
ag19
ag11
ag12
asS'disney'
p174
(lp175
g19
asS'told'
p176
(lp177
g8
ag18
ag12
asS'thepaddymcb'
p178
(lp179
g19
asS'hero'
p180
(lp181
g4
ag17
ag19
asS'reporter'
p182
(lp183
g27
asS'mel'
p184
(lp185
g8
ag4
ag5
ag27
ag19
asS'never'
p186
(lp187
g8
ag26
ag27
ag19
asS'feisty'
p188
(lp189
g11
asS'stared'
p190
(lp191
g5
asS'drew'
p192
(lp193
g27
asS'met'
p194
(lp195
g8
ag4
ag17
ag5
ag27
ag19
ag11
ag12
asS'active'
p196
(lp197
g8
asS'cardboard'
p198
(lp199
g5
asS'bluetoo'
p200
(lp201
g26
asS'celebration'
p202
(lp203
g27
asS'digits'
p204
(lp205
g17
asS'kids'
p206
(lp207
g4
asS'textually'
p208
(lp209
g19
asS'covers'
p210
(lp211
g19
asS'luggage'
p212
(lp213
g5
asS'auction'
p214
(lp215
g4
asS'items'
p216
(lp217
g17
ag5
ag26
asS'k'
(lp218
g8
ag4
ag17
ag5
ag26
ag27
ag18
ag19
ag11
ag12
asS'changed'
p219
(lp220
g17
ag11
ag12
asS'bumps'
p221
(lp222
g4
ag11
asS'reports'
p223
(lp224
g26
ag18
ag12
asS'ignoring'
p225
(lp226
g11
asS'itunes'
p227
(lp228
g17
ag5
asS'lauriesullivan'
p229
(lp230
g26
asS'ako'
p231
(lp232
g12
asS'amyschumer'
p233
(lp234
g27
asS'lml'
p235
(lp236
g27
asS'pack'
p237
(lp238
g17
ag5
ag19
ag12
asS'changes'
p239
(lp240
g8
ag12
asS'midway'
p241
(lp242
g4
asS'criticism'
p243
(lp244
g27
ag18
asS'golden'
p245
(lp246
g4
ag27
asS'whatnot'
p247
(lp248
g5
asS'campaign'
p249
(lp250
g5
ag18
asS'mobility'
p251
(lp252
g18
asS'edgier'
p253
(lp254
g12
asS'graders'
p255
(lp256
g18
asS'replace'
p257
(lp258
g8
ag26
asS'brought'
p259
(lp260
g27
ag18
asS'downsviewpark'
p261
(lp262
g4
asS'jackets'
p263
(lp264
g18
asS'counts'
p265
(lp266
g5
ag26
asS'remaining'
p267
(lp268
g19
asS'spoke'
p269
(lp270
g27
asS'would'
p271
(lp272
g4
ag17
ag5
ag27
ag18
ag19
ag12
asS'palestinian'
p273
(lp274
g18
asS'gmr'
p275
(lp276
g12
asS'negative'
p277
(lp278
g17
asS'mation'
p279
(lp280
g8
ag17
ag19
asS'call'
p281
(lp282
g8
ag4
ag17
ag26
ag27
ag18
ag19
ag11
asS'comcast'
p283
(lp284
g8
asS'passport'
p285
(lp286
g18
asS'recommend'
p287
(lp288
g17
ag5
ag19
asS'survive'
p289
(lp290
g4
ag19
asS'preview'
p291
(lp292
g17
asS'type'
p293
(lp294
g8
ag26
asS'tell'
p295
(lp296
g4
ag17
ag5
ag18
ag19
ag12
asS'wears'
p297
(lp298
g12
asS'holy'
p299
(lp300
g4
ag5
asS'sabes'
p301
(lp302
g4
asS'successful'
p303
(lp304
g4
ag19
asS'oscar'
p305
(lp306
g17
asS'infosec'
p307
(lp308
g27
asS'wars'
p309
(lp310
g19
asS'suziperry'
p311
(lp312
g4
asS'hurt'
p313
(lp314
g8
asS'phone'
p315
(lp316
g8
ag17
ag5
ag18
ag11
ag12
asS'berlin'
p317
(lp318
g18
asS'warm'
p319
(lp320
g4
asS'adult'
p321
(lp322
g5
asS'excellent'
p323
(lp324
g19
asS'hold'
p325
(lp326
g8
ag19
ag12
asS'must'
p327
(lp328
g27
ag18
ag11
asS'sluggish'
p329
(lp330
g12
asS'md'
p331
(lp332
g8
asS'join'
p333
(lp334
g8
ag5
ag18
ag19
ag11
asS'mc'
p335
(lp336
g8
ag4
ag17
ag27
ag19
ag11
ag12
asS'shame'
p337
(lp338
g27
asS'ml'
p339
(lp340
g17
ag27
ag19
asS'work'
p341
(lp342
g8
ag4
ag17
ag5
ag26
ag27
ag19
ag11
ag12
asS'mi'
p343
(lp344
g8
ag4
ag17
ag5
ag26
ag27
ag18
ag19
ag11
ag12
asS'mk'
p345
(lp346
g27
ag19
asS'cuddly'
p347
(lp348
g27
asS'movies'
p349
(lp350
g18
ag19
asS'era'
p351
(lp352
g8
ag4
ag17
ag5
ag26
ag27
ag18
ag19
ag11
ag12
asS'install'
p353
(lp354
g8
asS'shelve'
p355
(lp356
g8
asS'crackers'
p357
(lp358
g5
asS'root'
p359
(lp360
g26
asS'blogpost'
p361
(lp362
g17
asS'usanainc'
p363
(lp364
g12
asS'midroll'
p365
(lp366
g19
asS'cloudgine'
p367
(lp368
g8
asS'gamergate'
p369
(lp370
g26
asS'airstrip'
p371
(lp372
g11
asS'give'
p373
(lp374
g8
ag4
ag17
ag5
ag19
ag11
ag12
asS'indie'
p375
(lp376
g8
ag5
asS'skipping'
p377
(lp378
g11
asS'india'
p379
(lp380
g8
ag11
ag12
asS'hatersgonnahate'
p381
(lp382
g19
asS'yellowjacket'
p383
(lp384
g19
asS'british'
p385
(lp386
g17
ag26
ag18
ag19
asS'want'
p387
(lp388
g8
ag4
ag17
ag5
ag26
ag27
ag18
ag19
ag11
ag12
asS'mrsashrick'
p389
(lp390
g5
asS'times'
p391
(lp392
g4
ag5
ag27
ag18
ag19
ag12
asS'absolute'
p393
(lp394
g8
ag17
ag19
asS'ones'
p395
(lp396
g8
ag27
ag19
ag11
ag12
asS'end'
p397
(lp398
g8
ag4
ag17
ag5
ag26
ag27
ag18
ag19
ag11
ag12
asS'recovery'
p399
(lp400
g19
asS'thing'
p401
(lp402
g8
ag4
ag17
ag5
ag26
ag27
ag18
ag19
ag11
asS'provide'
p403
(lp404
g8
asS'travel'
p405
(lp406
g8
ag4
ag17
ag5
ag11
ag12
asS'nuts'
p407
(lp408
g26
ag18
ag11
asS'feature'
p409
(lp410
g5
ag12
asS'chabrier'
p411
(lp412
g18
asS'amazing'
p413
(lp414
g17
ag5
ag26
ag19
asS'hos'
p415
(lp416
g4
ag27
ag11
ag12
asS'unleash'
p417
(lp418
g11
asS'rookie'
p419
(lp420
g11
asS'gate'
p421
(lp422
g8
ag26
ag19
ag11
ag12
asS'gaming'
p423
(lp424
g8
ag11
asS'crowding'
p425
(lp426
g18
asS'beauty'
p427
(lp428
g19
asS'replacing'
p429
(lp430
g8
asS'earlier'
p431
(lp432
g17
ag27
asS'justasec'
p433
(lp434
g4
asS'wrong'
p435
(lp436
g26
ag18
asS'uproxx'
p437
(lp438
g5
asS'curiosity'
p439
(lp440
g17
asS'president'
p441
(lp442
g18
asS'law'
p443
(lp444
g27
ag19
asS'disagree'
p445
(lp446
g18
asS'purchase'
p447
(lp448
g17
ag5
ag26
asS'retail'
p449
(lp450
g5
ag26
asS'third'
p451
(lp452
g8
ag5
asS'hbonow'
p453
(lp454
g27
asS'gettingfat'
p455
(lp456
g12
asS'appreciate'
p457
(lp458
g19
ag11
asS'johncena'
p459
(lp460
g27
asS'greek'
p461
(lp462
g18
asS'rogue'
p463
(lp464
g19
asS'green'
p465
(lp466
g4
ag27
asS'ultimate'
p467
(lp468
g4
asS'africa'
p469
(lp470
g18
asS'keeps'
p471
(lp472
g4
ag12
asS'worst'
p473
(lp474
g26
ag19
asS'order'
p475
(lp476
g8
ag17
ag5
ag26
ag18
ag19
ag12
asS'jack'
p477
(lp478
g4
ag17
ag18
ag19
asS'belong'
p479
(lp480
g18
asS'office'
p481
(lp482
g8
ag27
ag19
asS'fall'
p483
(lp484
g4
ag26
ag11
asS'vary'
p485
(lp486
g12
asS'london'
p487
(lp488
g19
asS'googleexpress'
p489
(lp490
g17
asS'tomiahonen'
p491
(lp492
g11
asS'japan'
p493
(lp494
g5
asS'ima'
p495
(lp496
g4
ag17
ag26
ag27
ag18
ag19
asS'suites'
p497
(lp498
g19
asS'chihuahua'
p499
(lp500
g11
asS'rescheduled'
p501
(lp502
g26
asS'somewhere'
p503
(lp504
g17
asS'highlights'
p505
(lp506
g11
asS'fix'
p507
(lp508
g8
ag17
ag26
ag19
asS'recreational'
p509
(lp510
g4
asS'imo'
p511
(lp512
g26
ag11
asS'writing'
p513
(lp514
g19
asS'better'
p515
(lp516
g8
ag5
ag26
ag27
ag18
ag19
ag12
asS'rly'
p517
(lp518
g4
ag17
ag27
ag18
ag19
ag12
asS'fig'
p519
(lp520
g19
asS'aiesecgermany'
p521
(lp522
g8
asS'victorious'
p523
(lp524
g19
asS'weeks'
p525
(lp526
g17
asS'easier'
p527
(lp528
g12
asS'versus'
p529
(lp530
g19
asS'cnet'
p531
(lp532
g17
ag26
ag11
asS'anthonygermain'
p533
(lp534
g4
asS'backtoschool'
p535
(lp536
g8
asS'safe'
p537
(lp538
g4
ag27
asS'slavoj'
p539
(lp540
g18
asS'scene'
p541
(lp542
g19
ag12
asS'break'
p543
(lp544
g8
ag17
ag26
ag18
ag19
ag12
asS'band'
p545
(lp546
g4
ag5
ag27
ag12
asS'therapy'
p547
(lp548
g4
asS'indulge'
p549
(lp550
g19
asS'jesus'
p551
(lp552
g26
ag27
asS'bank'
p553
(lp554
g17
ag5
asS'abdullahbats'
p555
(lp556
g19
asS'alex'
p557
(lp558
g4
ag17
ag18
asS'gallows'
p559
(lp560
g19
asS'brough'
p561
(lp562
g27
ag18
ag12
asS'notified'
p563
(lp564
g17
asS'l'
(lp565
g8
ag4
ag17
ag5
ag26
ag27
ag18
ag19
ag11
ag12
asS'detroit'
p566
(lp567
g4
asS'rocks'
p568
(lp569
g4
asS'pompton'
p570
(lp571
g12
asS'newport'
p572
(lp573
g19
asS'roast'
p574
(lp575
g19
asS'louis'
p576
(lp577
g27
asS'went'
p578
(lp579
g4
ag27
ag19
asS'luck'
p580
(lp581
g8
ag4
ag27
ag19
asS'adobe'
p582
(lp583
g8
asS'series'
p584
(lp585
g17
ag5
ag19
asS'pirelli'
p586
(lp587
g27
asS'spider'
p588
(lp589
g19
asS'january'
p590
(lp591
g26
asS'likesuzanne'
p592
(lp593
sS'hacktheplanet'
p594
(lp595
g8
asS'hosted'
p596
(lp597
g4
ag27
asS'saturday'
p598
(lp599
g4
ag17
ag5
ag26
ag27
ag18
ag19
asS'rt'
p600
(lp601
g8
ag4
ag17
ag5
ag26
ag27
ag18
ag19
ag11
ag12
asS'trending'
p602
(lp603
g26
ag27
ag18
asS'bookshop'
p604
(lp605
g5
asS'network'
p606
(lp607
g5
asS'driving'
p608
(lp609
g4
asS'rs'
p610
(lp611
g8
ag4
ag17
ag5
ag26
ag27
ag18
ag19
ag11
ag12
asS'god'
p612
(lp613
g8
ag17
ag5
ag27
ag18
ag19
asS'cameras'
p614
(lp615
g26
asS'hooked'
p616
(lp617
g5
ag27
asS'starland'
p618
(lp619
g4
asS'rd'
p620
(lp621
g8
ag4
ag17
ag5
ag26
ag27
ag18
ag19
ag11
ag12
asS'keys'
p622
(lp623
g12
asS'thelostlaurens'
p624
(lp625
g19
asS'jointheuprise'
p626
(lp627
g8
asS'got'
p628
(lp629
g8
ag4
ag17
ag5
ag26
ag27
ag19
ag12
asS'ro'
p630
(lp631
g8
ag4
ag17
ag5
ag26
ag27
ag18
ag19
ag11
ag12
asS'idwpublishing'
p632
(lp633
g19
asS'bald'
p634
(lp635
g12
asS'thearkoftwitter'
p636
(lp637
g18
asS'nation'
p638
(lp639
g8
ag27
ag18
ag19
asS'written'
p640
(lp641
g8
ag19
asS'tops'
p642
(lp643
g26
ag18
ag19
asS'little'
p644
(lp645
g17
ag26
ag19
ag11
ag12
asS'free'
p646
(lp647
g8
ag4
ag17
ag5
ag26
ag18
ag19
ag11
asS'campaigns'
p648
(lp649
g18
asS'struggle'
p650
(lp651
g26
ag18
ag19
asS'everyman'
p652
(lp653
g19
asS'seceded'
p654
(lp655
g18
asS'wanted'
p656
(lp657
g8
ag12
asS'metallica'
p658
(lp659
g4
asS'soundcloud'
p660
(lp661
g4
asS'publication'
p662
(lp663
g17
asS'ate'
p664
(lp665
g8
ag4
ag17
ag5
ag26
ag27
ag18
ag19
ag11
ag12
asS'created'
p666
(lp667
g26
asS'starts'
p668
(lp669
g4
ag17
ag19
ag11
ag12
asS'atl'
p670
(lp671
g8
ag4
ag19
asS'ritual'
p672
(lp673
g5
asS'days'
p674
(lp675
g8
ag4
ag17
ag5
ag26
ag27
ag19
ag12
asS'priorities'
p676
(lp677
g11
asS'casuallynorm'
p678
(lp679
g12
asS'att'
p680
(lp681
g8
ag17
ag5
ag27
ag19
ag12
asS'heck'
p682
(lp683
g8
ag4
ag17
ag5
ag26
ag19
ag11
ag12
asS'incorporated'
p684
(lp685
g8
asS'unknown'
p686
(lp687
g5
asS'chiraq'
p688
(lp689
g17
asS'moving'
p690
(lp691
g18
ag19
asS'broken'
p692
(lp693
g19
asS'onto'
p694
(lp695
g8
ag4
ag27
ag19
asS'kenttaylor'
p696
(lp697
g8
asS'size'
p698
(lp699
g5
ag19
asS'already'
p700
(lp701
g5
ag26
ag19
ag12
asS'features'
p702
(lp703
g12
asS'grade'
p704
(lp705
g8
ag4
ag27
ag18
ag11
asS'outmaneuvered'
p706
(lp707
g18
asS'coding'
p708
(lp709
g12
asS'spinning'
p710
(lp711
g17
asS'grady'
p712
(lp713
g17
ag11
asS'another'
p714
(lp715
g8
ag5
ag27
ag18
ag19
ag11
asS'drones'
p716
(lp717
g8
asS'kwagstaff'
p718
(lp719
g12
asS'comic'
p720
(lp721
g19
asS'chaturbate'
p722
(lp723
g17
asS'mojo'
p724
(lp725
g27
asS'solstice'
p726
(lp727
g26
asS'rated'
p728
(lp729
g8
ag19
asS'rewritten'
p730
(lp731
g8
asS'service'
p732
(lp733
g8
ag5
asS'top'
p734
(lp735
g8
ag17
ag5
ag26
ag27
ag18
ag19
ag12
asS'amsterdam'
p736
(lp737
g8
asS'carry'
p738
(lp739
g12
asS'stack'
p740
(lp741
g12
asS'needed'
p742
(lp743
g17
asS'california'
p744
(lp745
g27
asS'listed'
p746
(lp747
g17
asS'miller'
p748
(lp749
g4
asS'rockin'
p750
(lp751
g4
asS'draft'
p752
(lp753
g19
asS'hollywood'
p754
(lp755
g27
asS'john'
p756
(lp757
g8
ag4
ag27
asS'dogs'
p758
(lp759
g18
asS'listen'
p760
(lp761
g4
ag17
ag27
ag18
ag12
asS'grexit'
p762
(lp763
g18
asS'streets'
p764
(lp765
g11
asS'paltry'
p766
(lp767
g19
asS'suzannemalveaux'
p768
(lp769
g8
asS'coyjandreau'
p770
(lp771
g19
asS'took'
p772
(lp773
g27
ag19
ag12
asS'comically'
p774
(lp775
g19
asS'sneakypete'
p776
(lp777
g5
asS'scorpions'
p778
(lp779
g4
asS'evil'
p780
(lp781
g19
asS'shortly'
p782
(lp783
g11
asS'downtime'
p784
(lp785
g19
asS'sophieandscottie'
p786
(lp787
g17
asS'toronto'
p788
(lp789
g4
asS'spoiler'
p790
(lp791
g19
asS'glorified'
p792
(lp793
g26
asS'accomplishment'
p794
(lp795
g12
asS'fairytale'
p796
(lp797
g27
asS'immigrants'
p798
(lp799
g18
asS'nerdiest'
p800
(lp801
g19
asS'ebay'
p802
(lp803
g26
asS'project'
p804
(lp805
g17
ag19
ag11
asS'matter'
p806
(lp807
g8
ag17
ag19
asS'classes'
p808
(lp809
g4
asS'itsmekimshaw'
p810
(lp811
g27
asS'iron'
p812
(lp813
g19
asS'budget'
p814
(lp815
g12
asS'tres'
p816
(lp817
g5
ag27
ag19
asS'feeling'
p818
(lp819
g8
ag5
ag27
asS'powers'
p820
(lp821
g19
asS'minus'
p822
(lp823
g11
asS'desperate'
p824
(lp825
g17
ag19
asS'screenplay'
p826
(lp827
g27
asS'youre'
p828
(lp829
g27
asS'ev'
p830
(lp831
g8
ag4
ag17
ag5
ag26
ag27
ag18
ag19
ag11
ag12
asS'palace'
p832
(lp833
g4
asS'ran'
p834
(lp835
g8
ag4
ag17
ag5
ag26
ag27
ag18
ag19
ag12
asS'boston'
p836
(lp837
g4
ag12
asS'aapl'
p838
(lp839
g12
asS'plugins'
p840
(lp841
g11
asS'mind'
p842
(lp843
g8
ag4
ag5
ag19
ag11
ag12
asS'mine'
p844
(lp845
g4
ag17
ag5
ag19
asS'glass'
p846
(lp847
g27
asS'gqmoty'
p848
(lp849
g27
asS'talking'
p850
(lp851
g4
ag19
asS'iamsteadman'
p852
(lp853
g19
asS'baltanii'
p854
(lp855
g5
asS'lunchtime'
p856
(lp857
g5
asS'seen'
p858
(lp859
g5
ag26
ag19
asS'seem'
p860
(lp861
g18
ag19
ag11
asS'mins'
p862
(lp863
g8
ag18
ag19
asS'tells'
p864
(lp865
g17
ag18
asS'gamesmc'
p866
(lp867
g19
asS'gives'
p868
(lp869
g11
asS'affairs'
p870
(lp871
g17
asS'tristan'
p872
(lp873
g18
asS'hub'
p874
(lp875
g19
asS'bayreuth'
p876
(lp877
g18
asS'harper'
p878
(lp879
g5
asS'convenient'
p880
(lp881
g12
asS'rudolph'
p882
(lp883
g27
asS'thorough'
p884
(lp885
g17
asS'newsfusionapps'
p886
(lp887
g18
asS'hotshots'
p888
(lp889
g19
asS'recommended'
p890
(lp891
g19
asS'niece'
p892
(lp893
g4
asS'moscow'
p894
(lp895
g18
asS'even'
p896
(lp897
g8
ag4
ag17
ag26
ag18
ag19
ag11
ag12
asS'though'
p898
(lp899
g8
ag17
ag5
ag26
ag27
ag19
ag12
asS'bruce'
p900
(lp901
g27
ag19
asS'bumili'
p902
(lp903
g12
asS'hammond'
p904
(lp905
g5
asS'techsoup'
p906
(lp907
g8
asS'cinematic'
p908
(lp909
g19
asS'regular'
p910
(lp911
g11
asS'germany'
p912
(lp913
g8
ag18
asS'bingewatching'
p914
(lp915
g27
asS'phase'
p916
(lp917
g19
asS'anywho'
p918
(lp919
g19
asS'competing'
p920
(lp921
g12
asS'germans'
p922
(lp923
g18
asS'abe'
p924
(lp925
g8
ag4
ag5
ag18
ag19
ag11
asS'zealand'
p926
(lp927
g27
asS'blacklist'
p928
(lp929
g5
asS'alanclayfilm'
p930
(lp931
g5
asS'episode'
p932
(lp933
g5
ag19
asS'rogers'
p934
(lp935
g19
asS'incomplete'
p936
(lp937
g27
asS'lose'
p938
(lp939
g4
ag5
ag18
ag19
ag11
asS'dog'
p940
(lp941
g5
ag18
asS'definitely'
p942
(lp943
g8
ag18
ag19
asS'tech'
p944
(lp945
g8
ag4
ag17
ag19
ag11
ag12
asS'principle'
p946
(lp947
g18
asS'scorching'
p948
(lp949
g27
asS'entertaining'
p950
(lp951
g19
asS'voting'
p952
(lp953
g27
asS'consumer'
p954
(lp955
g26
ag12
asS'annoyed'
p956
(lp957
g19
asS'came'
p958
(lp959
g17
ag5
ag26
ag19
asS'marvel'
p960
(lp961
g19
asS'decidedly'
p962
(lp963
g5
asS'incorporate'
p964
(lp965
g8
asS'inspire'
p966
(lp967
g27
asS'hunger'
p968
(lp969
g5
asS'nominated'
p970
(lp971
g27
asS'fucks'
p972
(lp973
g5
asS'radio'
p974
(lp975
g4
ag27
asS'earth'
p976
(lp977
g4
ag27
asS'tempted'
p978
(lp979
g19
asS'stephaniepratt'
p980
(lp981
g5
asS'soccerex'
p982
(lp983
g12
asS'lessons'
p984
(lp985
g26
asS'busy'
p986
(lp987
g19
ag12
asS'thems'
p988
(lp989
g17
asS'lazing'
p990
(lp991
g19
asS'spite'
p992
(lp993
g26
ag19
ag11
asS'headline'
p994
(lp995
g27
asS'explain'
p996
(lp997
g17
ag18
ag11
asS'michaelbhaskar'
p998
(lp999
g17
asS'bust'
p1000
(lp1001
g4
ag26
ag12
asS'screening'
p1002
(lp1003
g19
asS'excitedly'
p1004
(lp1005
g5
asS'integrate'
p1006
(lp1007
g17
asS'announce'
p1008
(lp1009
g4
ag5
ag11
ag12
asS'mistermetokur'
p1010
(lp1011
g8
asS'oct'
p1012
(lp1013
g17
ag5
ag27
ag19
ag12
asS'badal'
p1014
(lp1015
g4
asS'wearing'
p1016
(lp1017
g4
ag12
asS'dj'
p1018
(lp1019
g4
ag17
asS'faced'
p1020
(lp1021
g27
asS'air'
p1022
(lp1023
g17
ag5
ag27
ag19
ag11
asS'watch'
p1024
(lp1025
g5
ag26
ag27
ag19
ag11
ag12
asS'dc'
p1026
(lp1027
g4
ag19
asS'stor'
p1028
(lp1029
g8
ag17
ag5
ag26
ag27
ag18
ag19
ag11
ag12
asS'da'
p1030
(lp1031
g8
ag4
ag17
ag5
ag26
ag27
ag18
ag19
ag11
ag12
asS'cineworld'
p1032
(lp1033
g19
asS'amazon'
p1034
(lp1035
g17
ag5
ag26
ag18
asS'despite'
p1036
(lp1037
g26
ag11
asS'report'
p1038
(lp1039
g17
ag26
ag27
ag18
ag19
ag12
asS'nicely'
p1040
(lp1041
g17
asS'dr'
p1042
(lp1043
g8
ag4
ag17
ag5
ag26
ag27
ag18
ag19
ag11
ag12
asS'reinstall'
p1044
(lp1045
g8
asS'youngish'
p1046
(lp1047
g18
asS'earn'
p1048
(lp1049
g8
ag17
ag26
ag19
asS'hurricanedana'
p1050
(lp1051
g5
asS'covering'
p1052
(lp1053
g4
ag12
asS'thlittle'
p1054
(lp1055
sS'anxiously'
p1056
(lp1057
g4
asS'patch'
p1058
(lp1059
g8
asS'bag'
p1060
(lp1061
g26
ag18
ag19
asS'bad'
p1062
(lp1063
g8
ag4
ag27
ag19
asS'discs'
p1064
(lp1065
g8
asS'briefed'
p1066
(lp1067
g12
asS'piggy'
p1068
(lp1069
g17
asS'bridgetcarey'
p1070
(lp1071
g17
asS'release'
p1072
(lp1073
g8
ag17
ag26
ag19
ag12
asS'stinger'
p1074
(lp1075
g19
asS'saul'
p1076
(lp1077
g27
asS'dnr'
p1078
(lp1079
g18
asS'blew'
p1080
(lp1081
g26
ag19
asS'marvelguy'
p1082
(lp1083
g19
asS'miserably'
p1084
(lp1085
g8
asS'msau'
p1086
(lp1087
g8
asS'zoned'
p1088
(lp1089
g19
asS'saddle'
p1090
(lp1091
g17
asS'sturgeon'
p1092
(lp1093
g18
asS'analytics'
p1094
(lp1095
g8
asS'depends'
p1096
(lp1097
g12
asS'decided'
p1098
(lp1099
g5
ag19
asS'bed'
p1100
(lp1101
g17
ag26
ag27
asS'collectorcorps'
p1102
(lp1103
g19
asS'forceawakens'
p1104
(lp1105
g19
asS'fail'
p1106
(lp1107
g8
ag26
ag27
ag18
ag19
asS'activities'
p1108
(lp1109
g12
asS'best'
p1110
(lp1111
g8
ag4
ag17
ag5
ag26
ag27
ag18
ag19
ag11
ag12
asS'pete'
p1112
(lp1113
g5
asS'said'
p1114
(lp1115
g17
ag5
ag26
ag18
ag19
ag12
asS'runs'
p1116
(lp1117
g19
asS'lots'
p1118
(lp1119
g8
ag4
ag26
asS'kthopkins'
p1120
(lp1121
g18
asS'swapped'
p1122
(lp1123
g19
asS'hopefully'
p1124
(lp1125
g8
ag17
ag5
ag19
asS'mum'
p1126
(lp1127
g19
asS'tolerance'
p1128
(lp1129
g18
asS'freedomoffreedo'
p1130
(lp1131
g18
asS'reddit'
p1132
(lp1133
g4
asS'wd'
p1134
(lp1135
g8
ag26
ag18
ag19
asS'wb'
p1136
(lp1137
g17
ag5
ag19
asS'extend'
p1138
(lp1139
g17
ag27
asS'literally'
p1140
(lp1141
g5
ag27
ag12
asS'weak'
p1142
(lp1143
g11
asS'however'
p1144
(lp1145
g11
asS'souvenir'
p1146
(lp1147
g27
asS'managing'
p1148
(lp1149
g19
asS'alwysbemkngfrnz'
p1150
(lp1151
g27
asS'wear'
p1152
(lp1153
g4
ag27
ag12
asS'wtf'
p1154
(lp1155
g8
asS'wtg'
p1156
(lp1157
g5
asS'news'
p1158
(lp1159
g8
ag4
ag17
ag26
ag27
ag18
ag19
ag11
ag12
asS'packages'
p1160
(lp1161
g5
ag19
asS'creds'
p1162
(lp1163
g11
asS'suggested'
p1164
(lp1165
g8
asS'received'
p1166
(lp1167
g17
ag26
ag19
asS'protect'
p1168
(lp1169
g18
asS'mulligan'
p1170
(lp1171
g27
asS'crave'
p1172
(lp1173
g12
asS'stuartdredge'
p1174
(lp1175
g12
asS'country'
p1176
(lp1177
g4
ag18
asS'ill'
p1178
(lp1179
g8
ag4
ag17
ag5
ag26
ag27
ag18
ag19
ag11
ag12
asS'coz'
p1180
(lp1181
g8
asS'adventures'
p1182
(lp1183
g17
asS'edgar'
p1184
(lp1185
g19
asS'cinemagic'
p1186
(lp1187
g19
asS'games'
p1188
(lp1189
g17
ag5
ag19
asS'planned'
p1190
(lp1191
g5
ag18
asS'faces'
p1192
(lp1193
g4
ag11
asS'hypocrites'
p1194
(lp1195
g18
asS'distinction'
p1196
(lp1197
g19
asS'login'
p1198
(lp1199
g8
asS'ericfisher'
p1200
(lp1201
g4
asS'asked'
p1202
(lp1203
g18
asS'con'
p1204
(lp1205
g8
ag4
ag17
ag5
ag26
ag27
ag18
ag19
ag11
ag12
asS'aktuell'
p1206
(lp1207
g18
asS'prepared'
p1208
(lp1209
g19
asS'mcpesuggestions'
p1210
(lp1211
g17
asS'appeared'
p1212
(lp1213
g27
asS'character'
p1214
(lp1215
g19
asS'annaakana'
p1216
(lp1217
g19
asS'cuz'
p1218
(lp1219
g19
asS'dorm'
p1220
(lp1221
g11
asS'cobraorlando'
p1222
(lp1223
g17
asS'coffey'
p1224
(lp1225
g19
asS'diff'
p1226
(lp1227
g8
ag17
ag12
asS'blonde'
p1228
(lp1229
g27
asS'trust'
p1230
(lp1231
g17
ag5
asS'speak'
p1232
(lp1233
g8
asS'conference'
p1234
(lp1235
g18
ag11
asS'barack'
p1236
(lp1237
g18
asS'braxwolf'
p1238
(lp1239
g19
asS'beef'
p1240
(lp1241
g19
asS'wright'
p1242
(lp1243
g19
asS'chrome'
p1244
(lp1245
g11
asS'fri'
p1246
(lp1247
g8
ag4
ag17
ag5
ag26
ag27
ag18
ag19
ag11
ag12
asS'quickly'
p1248
(lp1249
g27
asS'ftatr'
p1250
(lp1251
g4
asS'beer'
p1252
(lp1253
g4
asS'much'
p1254
(lp1255
g4
ag17
ag5
ag26
ag27
ag18
ag19
asS'refurbished'
p1256
(lp1257
g19
asS'stadium'
p1258
(lp1259
g4
asS'expected'
p1260
(lp1261
g18
ag19
ag12
asS'towns'
p1262
(lp1263
g19
asS'pro'
p1264
(lp1265
g8
ag4
ag17
ag5
ag26
ag27
ag18
ag19
ag11
ag12
asS'threw'
p1266
(lp1267
g18
asS'website'
p1268
(lp1269
g27
ag11
asS'dry'
p1270
(lp1271
g5
asS'life'
p1272
(lp1273
g4
ag27
ag19
ag12
asS'geeknado'
p1274
(lp1275
g12
asS'hiring'
p1276
(lp1277
g17
asS'invitational'
p1278
(lp1279
g11
asS'districthall'
p1280
(lp1281
g11
asS'fest'
p1282
(lp1283
g8
ag4
ag18
ag11
ag12
asS'personally'
p1284
(lp1285
g27
asS'catch'
p1286
(lp1287
g8
ag5
ag27
ag19
ag11
ag12
asS'mcu'
p1288
(lp1289
g19
asS'commerce'
p1290
(lp1291
g26
asS'launches'
p1292
(lp1293
g26
ag11
asS'amazonsmile'
p1294
(lp1295
g26
asS'n'
(lp1296
g8
ag4
ag17
ag5
ag26
ag27
ag18
ag19
ag11
ag12
asS'maaaybe'
p1297
(lp1298
g19
asS'near'
p1299
(lp1300
g8
ag4
ag19
asS'suppose'
p1301
(lp1302
g17
ag5
ag26
asS'aid'
p1303
(lp1304
g17
ag5
ag26
ag18
ag19
ag12
asS'gerhard'
p1305
(lp1306
g18
asS'armband'
p1307
(lp1308
g12
asS'launched'
p1309
(lp1310
g11
ag12
asS'mistake'
p1311
(lp1312
g11
asS'stink'
p1313
(lp1314
g19
asS'played'
p1315
(lp1316
g19
asS'kckstr'
p1317
(lp1318
g12
asS'likchan'
p1319
(lp1320
g17
asS'accessories'
p1321
(lp1322
g12
asS'sting'
p1323
(lp1324
g4
ag5
ag19
ag11
ag12
asS'ii'
p1325
(lp1326
g8
ag17
ag5
asS'juvenilefiction'
p1327
(lp1328
g17
asS'cant'
p1329
(lp1330
g8
ag5
ag27
ag18
ag11
asS'im'
p1331
(lp1332
g8
ag4
ag17
ag5
ag26
ag27
ag18
ag19
ag11
ag12
asS'ramifications'
p1333
(lp1334
g19
asS'madonna'
p1335
(lp1336
g5
asS'mouse'
p1337
(lp1338
g5
asS'stint'
p1339
(lp1340
g27
asS'confirmed'
p1341
(lp1342
g11
asS'anybody'
p1343
(lp1344
g27
ag19
asS'soldier'
p1345
(lp1346
g17
ag19
asS'things'
p1347
(lp1348
g26
ag19
asS'make'
p1349
(lp1350
g8
ag4
ag17
ag5
ag26
ag27
ag19
ag12
asS'cumulative'
p1351
(lp1352
g27
asS'imbued'
p1353
(lp1354
g19
asS'jerry'
p1355
(lp1356
g27
asS'meetup'
p1357
(lp1358
g8
asS'ohhhhh'
p1359
(lp1360
g19
asS'themoreyouknow'
p1361
(lp1362
g19
asS'babies'
p1363
(lp1364
g17
asS'bands'
p1365
(lp1366
g12
asS'avoids'
p1367
(lp1368
g19
asS'success'
p1369
(lp1370
g4
ag26
ag19
asS'several'
p1371
(lp1372
g17
ag19
ag12
asS'nsagov'
p1373
(lp1374
g8
asS'bid'
p1375
(lp1376
g4
ag11
ag12
asS'european'
p1377
(lp1378
g18
asS'hank'
p1379
(lp1380
g8
ag4
ag17
ag5
ag18
ag19
ag12
asS'tsipras'
p1381
(lp1382
g18
asS'fuss'
p1383
(lp1384
g26
ag19
asS'inadvertently'
p1385
(lp1386
g4
asS'jurxssicpratt'
p1387
(lp1388
g17
asS'governors'
p1389
(lp1390
g27
asS'ella'
p1391
(lp1392
g8
ag17
ag5
asS'social'
p1393
(lp1394
g26
asS'outperformed'
p1395
(lp1396
g26
asS'rain'
p1397
(lp1398
g8
ag4
ag17
ag5
ag26
ag27
ag18
ag19
asS'kit'
p1399
(lp1400
g17
ag5
asS'jazzstlouis'
p1401
(lp1402
g27
asS'ownership'
p1403
(lp1404
g11
asS'supper'
p1405
(lp1406
g26
asS'amazonamazon'
p1407
(lp1408
sS'tune'
p1409
(lp1410
g4
ag17
ag5
ag11
asS'kid'
p1411
(lp1412
g4
ag17
ag26
ag27
ag12
asS'kept'
p1413
(lp1414
g19
ag11
asS'thx'
p1415
(lp1416
g12
asS'charlie'
p1417
(lp1418
g19
asS'themattkey'
p1419
(lp1420
g19
asS'dallas'
p1421
(lp1422
g8
asS'kyle'
p1423
(lp1424
g4
asS'changer'
p1425
(lp1426
g12
asS'tho'
p1427
(lp1428
g8
ag4
ag17
ag5
ag26
ag27
ag18
ag19
ag11
ag12
asS'epl'
p1429
(lp1430
g8
ag26
ag27
ag19
asS'pandora'
p1431
(lp1432
g4
asS'mother'
p1433
(lp1434
g17
ag18
asS'alarms'
p1435
(lp1436
g4
asS'claims'
p1437
(lp1438
g26
ag19
ag12
asS'dads'
p1439
(lp1440
g19
asS'left'
p1441
(lp1442
g8
ag4
ag26
ag27
ag19
ag12
asS'sleeps'
p1443
(lp1444
g27
asS'photo'
p1445
(lp1446
g4
ag27
ag19
asS'laptop'
p1447
(lp1448
g8
ag17
asS'mending'
p1449
(lp1450
g17
asS'forsaken'
p1451
(lp1452
g17
asS'jillshalvis'
p1453
(lp1454
g5
asS'quotes'
p1455
(lp1456
g27
asS'emobility'
p1457
(lp1458
g18
asS'meta'
p1459
(lp1460
g4
ag19
asS'thanks'
p1461
(lp1462
g8
ag17
ag5
ag19
asS'human'
p1463
(lp1464
g26
ag18
asS'falcon'
p1465
(lp1466
g19
asS'facts'
p1467
(lp1468
g8
asS'yep'
p1469
(lp1470
g4
asS'yes'
p1471
(lp1472
g8
ag4
ag17
ag5
ag19
asS'yet'
p1473
(lp1474
g8
ag17
ag26
ag19
ag12
asS'hills'
p1475
(lp1476
g27
asS'hab'
p1477
(lp1478
g4
ag18
ag19
asS'royal'
p1479
(lp1480
g4
asS'usanaunited'
p1481
(lp1482
g12
asS'topical'
p1483
(lp1484
g27
asS'scspikes'
p1485
(lp1486
g12
asS'board'
p1487
(lp1488
g17
ag5
ag11
asS'easy'
p1489
(lp1490
g5
asS'therockfm'
p1491
(lp1492
g4
asS'save'
p1493
(lp1494
g17
ag26
ag19
asS'hat'
p1495
(lp1496
g4
ag17
ag5
ag26
ag27
ag19
ag11
asS'humanity'
p1497
(lp1498
g26
asS'gave'
p1499
(lp1500
g8
ag17
asS'viking'
p1501
(lp1502
g17
asS'mocked'
p1503
(lp1504
g26
asS'maya'
p1505
(lp1506
g27
asS'dignity'
p1507
(lp1508
g18
asS'advances'
p1509
(lp1510
g17
asS'breaks'
p1511
(lp1512
g17
ag18
asS'credit'
p1513
(lp1514
g19
asS'possible'
p1515
(lp1516
g19
ag12
asS'arab'
p1517
(lp1518
g4
ag12
asS'boxes'
p1519
(lp1520
g19
asS'birth'
p1521
(lp1522
g8
ag26
ag27
ag18
ag12
asS'newcastle'
p1523
(lp1524
g4
asS'highly'
p1525
(lp1526
g17
ag27
ag19
asS'rumor'
p1527
(lp1528
g11
ag12
asS'apart'
p1529
(lp1530
g5
asS'melting'
p1531
(lp1532
g4
asS'hiatus'
p1533
(lp1534
g19
asS'gift'
p1535
(lp1536
g17
asS'bobby'
p1537
(lp1538
g5
asS'xp'
p1539
(lp1540
g8
ag17
ag5
ag18
ag19
ag11
ag12
asS'performing'
p1541
(lp1542
g11
ag12
asS'unnecessary'
p1543
(lp1544
g27
asS'xbox'
p1545
(lp1546
g8
asS'remind'
p1547
(lp1548
g4
ag5
ag19
ag12
asS'steps'
p1549
(lp1550
g27
ag12
asS'sequels'
p1551
(lp1552
g17
asS'night'
p1553
(lp1554
g4
ag17
ag5
ag26
ag27
ag19
ag11
asS'hung'
p1555
(lp1556
g8
ag5
ag18
asS'security'
p1557
(lp1558
g8
asS'prepping'
p1559
(lp1560
g12
asS'niamhpuirseil'
p1561
(lp1562
g18
asS'right'
p1563
(lp1564
g8
ag4
ag17
ag5
ag26
ag18
ag19
ag12
asS'old'
p1565
(lp1566
g8
ag4
ag17
ag26
ag27
ag18
ag19
ag11
ag12
asS'deal'
p1567
(lp1568
g17
ag5
ag26
asS'people'
p1569
(lp1570
g26
ag27
ag18
ag19
ag12
asS'understand'
p1571
(lp1572
g27
ag18
ag19
asS'crown'
p1573
(lp1574
g4
asS'somehow'
p1575
(lp1576
g5
ag19
asS'dead'
p1577
(lp1578
g19
asS'jennifer'
p1579
(lp1580
g27
asS'born'
p1581
(lp1582
g26
asS'election'
p1583
(lp1584
g18
asS'dear'
p1585
(lp1586
g8
ag18
asS'extended'
p1587
(lp1588
g27
asS'somesuch'
p1589
(lp1590
g8
asS'doorstep'
p1591
(lp1592
g17
asS'sister'
p1593
(lp1594
g19
asS'theatrical'
p1595
(lp1596
g17
asS'cooper'
p1597
(lp1598
g27
asS'soloway'
p1599
(lp1600
g27
asS'bottom'
p1601
(lp1602
g17
asS'armed'
p1603
(lp1604
g19
asS'snapchatted'
p1605
(lp1606
g19
asS'comments'
p1607
(lp1608
g27
asS'creative'
p1609
(lp1610
g12
asS'impulsively'
p1611
(lp1612
g17
asS'asking'
p1613
(lp1614
g19
asS'honoured'
p1615
(lp1616
g27
asS'myer'
p1617
(lp1618
g12
asS'umm'
p1619
(lp1620
g17
ag5
ag19
asS'dreambig'
p1621
(lp1622
g19
asS'beating'
p1623
(lp1624
g26
asS'christmas'
p1625
(lp1626
g26
asS'peek'
p1627
(lp1628
g26
ag19
asS'wifefail'
p1629
(lp1630
g27
asS'pls'
p1631
(lp1632
g8
asS'bold'
p1633
(lp1634
g18
asS'marketing'
p1635
(lp1636
g26
asS'pose'
p1637
(lp1638
g17
ag5
ag26
asS'plz'
p1639
(lp1640
g8
asS'illustration'
p1641
(lp1642
g18
asS'graduates'
p1643
(lp1644
g18
asS'discount'
p1645
(lp1646
g26
ag19
asS'bfas'
p1647
(lp1648
g8
asS'pla'
p1649
(lp1650
g8
ag4
ag17
ag5
ag26
ag27
ag18
ag19
ag11
ag12
asS'vickiesmalley'
p1651
(lp1652
g19
asS'flaws'
p1653
(lp1654
g19
asS'post'
p1655
(lp1656
g17
ag26
ag27
ag19
ag11
asS'super'
p1657
(lp1658
g8
ag4
ag5
ag19
ag12
asS'isolde'
p1659
(lp1660
g18
asS'empowerment'
p1661
(lp1662
g27
asS'cowboy'
p1663
(lp1664
g17
asS'vaginas'
p1665
(lp1666
g27
asS'months'
p1667
(lp1668
g8
ag17
ag19
asS'trustworthy'
p1669
(lp1670
g17
asS'realising'
p1671
(lp1672
g11
asS'dinner'
p1673
(lp1674
g4
ag27
asS'plus'
p1675
(lp1676
g8
ag27
ag19
ag11
ag12
asS'afternoon'
p1677
(lp1678
g5
ag19
asS'stoked'
p1679
(lp1680
g19
asS'actua'
p1681
(lp1682
g27
ag19
ag12
asS'azure'
p1683
(lp1684
g8
asS'showtimes'
p1685
(lp1686
g19
asS'thr'
p1687
(lp1688
g4
ag5
ag26
ag27
ag18
ag19
asS'sept'
p1689
(lp1690
g8
ag4
ag17
ag5
ag26
ag18
ag11
ag12
asS'mwvme'
p1691
(lp1692
g5
asS'stephaniefrey'
p1693
(lp1694
g27
asS'soc'
p1695
(lp1696
g5
ag26
ag19
ag12
asS'winehouse'
p1697
(lp1698
g19
asS'mantle'
p1699
(lp1700
g19
asS'civil'
p1701
(lp1702
g18
ag19
asS'selfie'
p1703
(lp1704
g26
asS'bound'
p1705
(lp1706
g8
ag27
asS'son'
p1707
(lp1708
g8
ag4
ag17
ag5
ag26
ag27
ag18
ag19
ag11
asS'complaints'
p1709
(lp1710
g26
asS'beings'
p1711
(lp1712
g18
asS'prepforprime'
p1713
(lp1714
g26
asS'magazines'
p1715
(lp1716
g27
asS'majornelson'
p1717
(lp1718
g8
asS'sox'
p1719
(lp1720
g4
asS'comedycentraluk'
p1721
(lp1722
g27
asS'comparing'
p1723
(lp1724
g26
asS'support'
p1725
(lp1726
g8
ag26
ag27
ag11
ag12
asS'flying'
p1727
(lp1728
g5
asS'appletv'
p1729
(lp1730
g17
ag12
asS'sunlight'
p1731
(lp1732
g17
asS'absolutely'
p1733
(lp1734
g8
ag19
asS'joseph'
p1735
(lp1736
g4
asS'despises'
p1737
(lp1738
g4
asS'way'
p1739
(lp1740
g8
ag4
ag17
ag5
ag26
ag27
ag18
ag19
ag11
ag12
asS'music'
p1741
(lp1742
g8
ag4
ag17
ag18
ag11
asS'war'
p1743
(lp1744
g8
ag4
ag17
ag5
ag26
ag27
ag19
ag11
ag12
asS'happy'
p1745
(lp1746
g8
ag17
ag26
ag18
ag19
asS'bert'
p1747
(lp1748
g27
asS'head'
p1749
(lp1750
g8
ag4
ag17
ag5
ag27
ag19
ag11
asS'offering'
p1751
(lp1752
g17
ag26
asS'becoming'
p1753
(lp1754
g11
asS'spike'
p1755
(lp1756
g17
ag12
asS'pdt'
p1757
(lp1758
g11
asS'stereo'
p1759
(lp1760
g27
ag11
asS'ford'
p1761
(lp1762
g4
asS'hear'
p1763
(lp1764
g8
ag17
ag26
ag18
ag19
ag11
ag12
asS'heap'
p1765
(lp1766
g17
ag26
ag27
asS'hartzel'
p1767
(lp1768
g19
asS'true'
p1769
(lp1770
g18
ag12
asS'analyst'
p1771
(lp1772
g12
asS'fort'
p1773
(lp1774
g8
ag26
ag27
ag19
asS'reset'
p1775
(lp1776
g8
asS'congratulations'
p1777
(lp1778
g8
ag17
asS'tvupdate'
p1779
(lp1780
g27
asS'versions'
p1781
(lp1782
g8
asS'inside'
p1783
(lp1784
g8
ag17
ag27
ag19
ag12
asS'hmm'
p1785
(lp1786
g19
ag12
asS'ruined'
p1787
(lp1788
g5
ag19
asS'crystal'
p1789
(lp1790
g12
asS'complications'
p1791
(lp1792
g11
asS'hartleyjustin'
p1793
(lp1794
g4
asS'sapphire'
p1795
(lp1796
g12
asS'inquiring'
p1797
(lp1798
g11
asS'jimcramer'
p1799
(lp1800
g12
asS'authackeray'
p1801
(lp1802
g17
asS'trio'
p1803
(lp1804
g27
asS'proud'
p1805
(lp1806
g26
asS'hotter'
p1807
(lp1808
g27
asS'moore'
p1809
(lp1810
g18
asS'barrymore'
p1811
(lp1812
g27
asS'computing'
p1813
(lp1814
g8
asS'tesla'
p1815
(lp1816
g11
asS'texts'
p1817
(lp1818
g12
asS'spinelessoyster'
p1819
(lp1820
g19
asS'suspicions'
p1821
(lp1822
g4
asS'drive'
p1823
(lp1824
g8
ag5
ag19
asS'proves'
p1825
(lp1826
g19
asS'expertise'
p1827
(lp1828
g18
asS'promised'
p1829
(lp1830
g4
ag26
asS'prayer'
p1831
(lp1832
g18
asS'ship'
p1833
(lp1834
g17
ag5
ag26
ag27
ag18
ag11
asS'trip'
p1835
(lp1836
g4
ag27
ag19
ag11
ag12
asS'shit'
p1837
(lp1838
g4
ag5
asS'thedayct'
p1839
(lp1840
g27
asS'astonishing'
p1841
(lp1842
g19
asS'vista'
p1843
(lp1844
g8
asS'beanbagboy'
p1845
(lp1846
g19
asS'tix'
p1847
(lp1848
g4
asS'lungs'
p1849
(lp1850
g17
asS'dying'
p1851
(lp1852
g27
ag19
asS'annu'
p1853
(lp1854
g4
ag26
ag27
asS'na'
p1855
(lp1856
g8
ag4
ag17
ag5
ag26
ag27
ag18
ag19
ag11
ag12
asS'jony'
p1857
(lp1858
g11
asS'nd'
p1859
(lp1860
g8
ag4
ag17
ag5
ag26
ag27
ag18
ag19
ag11
ag12
asS'actor'
p1861
(lp1862
g27
ag19
asS'reality'
p1863
(lp1864
g5
asS'ny'
p1865
(lp1866
g8
ag4
ag17
ag5
ag26
ag27
ag18
ag19
ag11
ag12
asS'interested'
p1867
(lp1868
g4
ag19
ag11
asS'role'
p1869
(lp1870
g27
ag19
asS'kget'
p1871
(lp1872
g27
asS'brings'
p1873
(lp1874
g17
ag27
ag12
asS'np'
p1875
(lp1876
g8
ag4
ag26
ag27
ag18
ag11
ag12
asS'holly'
p1877
(lp1878
g8
ag4
ag27
asS'roll'
p1879
(lp1880
g17
ag19
asS'scored'
p1881
(lp1882
g26
ag19
asS'picture'
p1883
(lp1884
g8
ag18
asS'models'
p1885
(lp1886
g11
asS'surprise'
p1887
(lp1888
g8
ag19
asS'welcome'
p1889
(lp1890
g8
ag17
asS'convincing'
p1891
(lp1892
g19
asS'update'
p1893
(lp1894
g8
ag17
ag26
ag27
ag11
asS'fell'
p1895
(lp1896
g26
ag27
ag18
asS'cup'
p1897
(lp1898
g11
ag12
asS'award'
p1899
(lp1900
g27
asS'scores'
p1901
(lp1902
g19
asS'aware'
p1903
(lp1904
g8
asS'weekend'
p1905
(lp1906
g8
ag4
ag19
asS'died'
p1907
(lp1908
g26
asS'disruption'
p1909
(lp1910
g17
ag11
asS'mall'
p1911
(lp1912
g8
ag17
ag19
asS'ottawa'
p1913
(lp1914
g4
asS'time'
p1915
(lp1916
g8
ag4
ag17
ag5
ag26
ag27
ag18
ag19
ag11
ag12
asS'push'
p1917
(lp1918
g17
ag18
ag12
asS'serious'
p1919
(lp1920
g26
ag11
asS'backward'
p1921
(lp1922
g8
asS'decision'
p1923
(lp1924
g5
ag18
ag19
asS'restored'
p1925
(lp1926
g18
asS'songs'
p1927
(lp1928
g4
asS'neighbors'
p1929
(lp1930
g5
asS'managed'
p1931
(lp1932
g5
asS'impulse'
p1933
(lp1934
g26
asS'ron'
p1935
(lp1936
g8
ag4
ag26
ag18
ag19
ag12
asS'global'
p1937
(lp1938
g8
ag18
asS'osu'
p1939
(lp1940
g4
asS'ouch'
p1941
(lp1942
g17
ag27
ag11
asS'dumas'
p1943
(lp1944
g17
asS'leads'
p1945
(lp1946
g26
ag18
asS'yapping'
p1947
(lp1948
g11
asS'burritos'
p1949
(lp1950
g4
asS'onwardstate'
p1951
(lp1952
g12
asS'nephew'
p1953
(lp1954
g19
asS'ice'
p1955
(lp1956
g8
ag17
ag5
ag26
ag27
ag18
ag19
ag11
ag12
asS'skin'
p1957
(lp1958
g27
ag19
ag12
asS'battle'
p1959
(lp1960
g8
asS'chair'
p1961
(lp1962
g11
asS'row'
p1963
(lp1964
g8
ag4
ag17
ag5
ag26
ag27
ag18
ag19
ag11
ag12
asS'certainly'
p1965
(lp1966
g5
asS'anticipation'
p1967
(lp1968
g19
asS'praises'
p1969
(lp1970
g27
asS'essentials'
p1971
(lp1972
g5
asS'meryl'
p1973
(lp1974
g27
asS'everything'
p1975
(lp1976
g17
ag26
ag11
asS'father'
p1977
(lp1978
g18
asS'contemplating'
p1979
(lp1980
g19
asS'german'
p1981
(lp1982
g8
ag18
asS'finally'
p1983
(lp1984
g8
ag5
ag26
ag19
asS'dissatisfied'
p1985
(lp1986
g26
asS'wed'
p1987
(lp1988
g8
ag4
ag17
ag5
ag26
ag27
ag18
ag19
ag11
ag12
asS'ouija'
p1989
(lp1990
g5
asS'likely'
p1991
(lp1992
g19
ag11
asS'town'
p1993
(lp1994
g27
ag19
asS'smartphone'
p1995
(lp1996
g8
asS'telegraph'
p1997
(lp1998
g18
asS'advantage'
p1999
(lp2000
g26
asS'hannak'
p2001
(lp2002
g19
asS'choice'
p2003
(lp2004
g8
ag17
ag19
asS'cook'
p2005
(lp2006
g17
ag11
ag12
asS'cyan'
p2007
(lp2008
g8
asS'trouble'
p2009
(lp2010
g4
asS'blast'
p2011
(lp2012
g4
ag5
ag12
asS'exact'
p2013
(lp2014
g8
ag17
asS'cool'
p2015
(lp2016
g17
ag27
ag19
ag11
ag12
asS'discovered'
p2017
(lp2018
g5
ag26
ag19
asS'penises'
p2019
(lp2020
g18
asS'vladimir'
p2021
(lp2022
g18
asS'level'
p2023
(lp2024
g8
asS'tear'
p2025
(lp2026
g18
asS'turns'
p2027
(lp2028
g8
ag17
ag26
asS'posts'
p2029
(lp2030
g26
ag11
asS'gun'
p2031
(lp2032
g4
ag27
ag18
asS'cameo'
p2033
(lp2034
g19
asS'travels'
p2035
(lp2036
g4
asS'p'
(lp2037
g8
ag4
ag17
ag5
ag26
ag27
ag18
ag19
ag11
ag12
asS'soooo'
p2038
(lp2039
g4
asS'team'
p2040
(lp2041
g8
ag26
ag12
asS'heathersolos'
p2042
(lp2043
g5
asS'speculation'
p2044
(lp2045
g8
asS'inclination'
p2046
(lp2047
g18
asS'round'
p2048
(lp2049
g8
ag17
ag5
ag26
ag27
ag18
ag19
ag11
ag12
asS'schroeder'
p2050
(lp2051
g18
asS'talked'
p2052
(lp2053
g18
asS'says'
p2054
(lp2055
g8
ag17
ag5
ag26
ag18
ag19
ag12
asS'camelot'
p2056
(lp2057
g5
asS'sigh'
p2058
(lp2059
g26
ag12
asS'sign'
p2060
(lp2061
g8
ag4
ag17
ag18
ag19
ag11
ag12
asS'cost'
p2062
(lp2063
g8
ag17
asS'voucher'
p2064
(lp2065
g17
asS'run'
p2066
(lp2067
g4
ag5
ag18
ag19
ag12
asS'wondering'
p2068
(lp2069
g19
asS'stressful'
p2070
(lp2071
g5
asS'doedoejohoe'
p2072
(lp2073
g19
asS'antwerp'
p2074
(lp2075
g19
asS'happilyeverafter'
p2076
(lp2077
g18
asS'favour'
p2078
(lp2079
g18
ag19
asS'fantasticfour'
p2080
(lp2081
g19
asS'pleased'
p2082
(lp2083
g18
asS'current'
p2084
(lp2085
g17
ag18
ag12
asS'suspect'
p2086
(lp2087
g4
asS'carey'
p2088
(lp2089
g17
ag27
asS'goes'
p2090
(lp2091
g17
ag19
ag11
asS'shared'
p2092
(lp2093
g27
asS'falling'
p2094
(lp2095
g26
asS'appeal'
p2096
(lp2097
g27
asS'theamericans'
p2098
(lp2099
g5
asS'philxl'
p2100
(lp2101
g19
asS'supporting'
p2102
(lp2103
g11
ag12
asS'destinythegame'
p2104
(lp2105
g11
asS'transportation'
p2106
(lp2107
g17
asS'ms'
p2108
(lp2109
g8
ag4
ag17
ag5
ag26
ag27
ag18
ag19
ag11
ag12
asS'hololens'
p2110
(lp2111
g8
asS'honour'
p2112
(lp2113
g4
ag27
asS'v'
(lp2114
g8
ag4
ag17
ag5
ag26
ag27
ag18
ag19
ag11
ag12
asS'amazonhelp'
p2115
(lp2116
g17
ag26
asS'downloaded'
p2117
(lp2118
g4
asS'slow'
p2119
(lp2120
g11
asS'address'
p2121
(lp2122
g26
asS'alone'
p2123
(lp2124
g5
ag26
ag27
ag19
asS'casestudy'
p2125
(lp2126
g8
asS'appears'
p2127
(lp2128
g17
asS'change'
p2129
(lp2130
g8
ag17
ag5
ag19
ag11
ag12
asS'wait'
p2131
(lp2132
g8
ag4
ag17
ag5
ag27
ag19
ag11
ag12
asS'box'
p2133
(lp2134
g8
ag19
asS'preorder'
p2135
(lp2136
g17
asS'canadian'
p2137
(lp2138
g18
asS'brilliant'
p2139
(lp2140
g8
ag27
ag19
asS'shift'
p2141
(lp2142
g17
asS'newooffice'
p2143
(lp2144
g8
asS'example'
p2145
(lp2146
g18
asS'trial'
p2147
(lp2148
g5
ag26
ag11
asS'women'
p2149
(lp2150
g27
asS'addictive'
p2151
(lp2152
g12
asS'bob'
p2153
(lp2154
g4
ag5
asS'minecraft'
p2155
(lp2156
g19
asS'montreal'
p2157
(lp2158
g4
asS'jeffkibuule'
p2159
(lp2160
g11
asS'teenage'
p2161
(lp2162
g18
asS'winner'
p2163
(lp2164
g12
asS'love'
p2165
(lp2166
g8
ag4
ag17
ag5
ag26
ag27
ag18
ag19
ag11
ag12
asS'extra'
p2167
(lp2168
g4
ag19
asS'prefer'
p2169
(lp2170
g8
asS'yankeejack'
p2171
(lp2172
g17
asS'snaps'
p2173
(lp2174
g4
asS'verge'
p2175
(lp2176
g26
asS'rarely'
p2177
(lp2178
g18
asS'crisis'
p2179
(lp2180
g18
asS'market'
p2181
(lp2182
g17
ag26
ag12
asS'everybody'
p2183
(lp2184
g26
ag18
ag19
asS'buttons'
p2185
(lp2186
g8
asS'vivid'
p2187
(lp2188
g17
asS'working'
p2189
(lp2190
g8
ag4
ag17
ag19
ag11
ag12
asS'positive'
p2191
(lp2192
g4
ag17
asS'scan'
p2193
(lp2194
g12
asS'visit'
p2195
(lp2196
g8
ag19
asS'predictions'
p2197
(lp2198
g11
asS'angela'
p2199
(lp2200
g18
asS'france'
p2201
(lp2202
g17
ag18
asS'parties'
p2203
(lp2204
g18
asS'danvers'
p2205
(lp2206
g19
asS'live'
p2207
(lp2208
g4
ag17
ag5
ag26
ag27
ag11
ag12
asS'danny'
p2209
(lp2210
g19
asS'auroretrav'
p2211
(lp2212
g17
asS'bershidsky'
p2213
(lp2214
g8
asS'wanting'
p2215
(lp2216
g26
ag19
asS'scope'
p2217
(lp2218
g11
asS'syrians'
p2219
(lp2220
g18
asS'thru'
p2221
(lp2222
g4
asS'prep'
p2223
(lp2224
g5
ag26
ag19
ag12
asS'today'
p2225
(lp2226
g8
ag4
ag17
ag5
ag26
ag27
ag18
ag19
ag11
asS'sharing'
p2227
(lp2228
g17
asS'symantec'
p2229
(lp2230
g8
asS'cantwait'
p2231
(lp2232
g27
ag11
asS'clue'
p2233
(lp2234
g8
asS'employee'
p2235
(lp2236
g11
asS'teaser'
p2237
(lp2238
g19
asS'daredevil'
p2239
(lp2240
g19
asS'beers'
p2241
(lp2242
g4
asS'slurping'
p2243
(lp2244
g27
asS'aviwoolf'
p2245
(lp2246
g18
asS'lescalleet'
p2247
(lp2248
g4
asS'migrants'
p2249
(lp2250
g18
asS'diehardfans'
p2251
(lp2252
g8
asS'car'
p2253
(lp2254
g8
ag4
ag17
ag5
ag27
ag19
ag11
ag12
asS'cap'
p2255
(lp2256
g4
ag17
ag19
ag12
asS'cat'
p2257
(lp2258
g8
ag17
ag5
ag27
ag18
ag19
ag11
ag12
asS'reviews'
p2259
(lp2260
g19
asS'soup'
p2261
(lp2262
g8
ag27
asS'rotogrinders'
p2263
(lp2264
g27
asS'making'
p2265
(lp2266
g5
ag26
ag27
ag11
asS'arrive'
p2267
(lp2268
g17
ag5
ag19
ag11
ag12
asS'streak'
p2269
(lp2270
g19
asS'heart'
p2271
(lp2272
g19
asS'crazy'
p2273
(lp2274
g17
ag19
asS'citizens'
p2275
(lp2276
g18
asS'survivingfamily'
p2277
(lp2278
g5
asS'trump'
p2279
(lp2280
g27
ag18
asS'stream'
p2281
(lp2282
g5
ag11
asS'yuckiest'
p2283
(lp2284
g17
asS'nexus'
p2285
(lp2286
g17
asS'december'
p2287
(lp2288
g4
ag17
ag5
asS'awesome'
p2289
(lp2290
g18
ag19
ag12
asS'sense'
p2291
(lp2292
g18
ag12
asS'fuck'
p2293
(lp2294
g8
ag4
ag17
ag5
ag27
asS'boxoffice'
p2295
(lp2296
g19
asS'squee'
p2297
(lp2298
g5
asS'thatkiddjoe'
p2299
(lp2300
g17
asS'heard'
p2301
(lp2302
g8
ag26
ag18
ag19
asS'dropped'
p2303
(lp2304
g8
asS'unveiled'
p2305
(lp2306
g12
asS'allowed'
p2307
(lp2308
g27
asS'chic'
p2309
(lp2310
g11
ag12
asS'counting'
p2311
(lp2312
g17
asS'pink'
p2313
(lp2314
g4
asS'dior'
p2315
(lp2316
g27
asS'winter'
p2317
(lp2318
g26
ag19
asS'dress'
p2319
(lp2320
g4
ag26
ag27
asS'discussion'
p2321
(lp2322
g19
asS'sallytenhoopen'
p2323
(lp2324
g17
asS'hitfix'
p2325
(lp2326
g19
asS'snapdragon'
p2327
(lp2328
g8
asS'write'
p2329
(lp2330
g17
ag19
asS'till'
p2331
(lp2332
g8
ag4
ag17
ag5
ag27
ag18
ag19
ag11
ag12
asS'sunday'
p2333
(lp2334
g8
ag4
ag5
ag27
ag18
ag19
ag12
asS'contrasts'
p2335
(lp2336
g18
asS'aluminum'
p2337
(lp2338
g12
asS'pure'
p2339
(lp2340
g8
asS'swore'
p2341
(lp2342
g19
asS'nyc'
p2343
(lp2344
g8
ag4
ag27
ag12
asS'films'
p2345
(lp2346
g19
asS'stocardapp'
p2347
(lp2348
g12
asS'staying'
p2349
(lp2350
g4
ag27
asS'mar'
p2351
(lp2352
g8
ag4
ag17
ag5
ag26
ag27
ag18
ag19
ag12
asS'huge'
p2353
(lp2354
g26
asS'may'
p2355
(lp2356
g8
ag4
ag17
ag5
ag26
ag27
ag18
ag19
ag11
ag12
asS'pogues'
p2357
(lp2358
g27
asS'blasting'
p2359
(lp2360
g4
asS'spot'
p2361
(lp2362
g8
ag5
ag26
asS'accessory'
p2363
(lp2364
g12
asS'islamic'
p2365
(lp2366
g18
asS'mac'
p2367
(lp2368
g8
ag26
ag27
ag18
ag12
asS'birthday'
p2369
(lp2370
g26
ag27
ag18
asS'manofthetown'
p2371
(lp2372
g19
asS'designed'
p2373
(lp2374
g17
ag11
asS'snp'
p2375
(lp2376
g18
asS'date'
p2377
(lp2378
g8
ag17
ag5
ag26
ag27
ag11
ag12
asS'suck'
p2379
(lp2380
g8
ag26
ag19
asS'charlesmilander'
p2381
(lp2382
g12
asS'guys'
p2383
(lp2384
g8
ag17
ag19
asS'compatibility'
p2385
(lp2386
g8
asS'man'
p2387
(lp2388
g8
ag4
ag17
ag5
ag26
ag27
ag18
ag19
ag11
ag12
asS'remember'
p2389
(lp2390
g4
ag27
ag18
ag19
ag11
ag12
asS'hanukkah'
p2391
(lp2392
g27
asS'maybe'
p2393
(lp2394
g8
ag17
ag27
ag19
asS'sp'
p2395
(lp2396
g8
ag4
ag17
ag5
ag26
ag27
ag18
ag19
ag11
ag12
asS'st'
p2397
(lp2398
g8
ag4
ag17
ag5
ag26
ag27
ag18
ag19
ag11
ag12
asS'devs'
p2399
(lp2400
g8
asS'si'
p2401
(lp2402
g8
ag4
ag17
ag5
ag26
ag27
ag18
ag19
ag11
ag12
asS'dmnqpvt'
p2403
(lp2404
g19
asS'glancing'
p2405
(lp2406
g12
asS'sm'
p2407
(lp2408
g8
ag4
ag17
ag5
ag26
ag27
ag18
ag19
ag12
asS'african'
p2409
(lp2410
g18
asS'basket'
p2411
(lp2412
g17
asS'sa'
p2413
(lp2414
g8
ag4
ag17
ag5
ag26
ag27
ag18
ag19
ag11
ag12
asS'sf'
p2415
(lp2416
g8
ag4
ag5
ag26
ag18
ag19
ag11
ag12
asS'talk'
p2417
(lp2418
g8
ag4
ag27
ag18
ag19
asS'refund'
p2419
(lp2420
g8
asS'cute'
p2421
(lp2422
g17
ag5
ag27
asS'nkuchibhotla'
p2423
(lp2424
g19
asS'breaking'
p2425
(lp2426
g26
ag19
asS'seeing'
p2427
(lp2428
g4
ag5
ag27
ag19
ag11
asS'indeed'
p2429
(lp2430
g18
asS'years'
p2431
(lp2432
g8
ag26
ag18
ag12
asS'course'
p2433
(lp2434
g17
ag27
ag19
asS'tablets'
p2435
(lp2436
g17
asS'nbsp'
p2437
(lp2438
g5
ag19
asS'pitch'
p2439
(lp2440
g8
asS'youranonnews'
p2441
(lp2442
g8
asS'still'
p2443
(lp2444
g8
ag4
ag17
ag5
ag27
ag18
ag19
ag11
ag12
asS'lovelies'
p2445
(lp2446
g4
asS'group'
p2447
(lp2448
g26
ag19
asS'thank'
p2449
(lp2450
g8
ag4
ag17
ag5
ag18
ag19
ag12
asS'iambigbirdmovie'
p2451
(lp2452
g5
asS'travellousworld'
p2453
(lp2454
g17
asS'hot'
p2455
(lp2456
g4
ag27
ag19
ag12
asS'faves'
p2457
(lp2458
g4
ag27
asS'superman'
p2459
(lp2460
g5
asS'platform'
p2461
(lp2462
g8
ag12
asS'offers'
p2463
(lp2464
g26
asS'tweets'
p2465
(lp2466
g4
ag11
asS'mail'
p2467
(lp2468
g8
ag17
ag5
ag27
ag19
ag12
asS'main'
p2469
(lp2470
g4
ag26
ag27
ag19
ag12
asS'decades'
p2471
(lp2472
g17
asS'happened'
p2473
(lp2474
g8
asS'non'
p2475
(lp2476
g8
ag19
asS'emailed'
p2477
(lp2478
g19
asS'indiabest'
p2479
(lp2480
sS'views'
p2481
(lp2482
g19
ag12
asS'devastated'
p2483
(lp2484
g8
asS'taehongmin'
p2485
(lp2486
g8
asS'killer'
p2487
(lp2488
g12
asS'sooner'
p2489
(lp2490
g4
ag12
asS'mba'
p2491
(lp2492
g8
ag12
asS'buckcherry'
p2493
(lp2494
g4
asS'lunch'
p2495
(lp2496
g8
ag4
ag5
ag19
asS'rivaling'
p2497
(lp2498
g26
asS'qhd'
p2499
(lp2500
g8
asS'half'
p2501
(lp2502
g17
ag5
ag18
ag19
ag12
asS'arriving'
p2503
(lp2504
g5
asS'nov'
p2505
(lp2506
g8
ag4
ag17
ag5
ag27
ag12
asS'bath'
p2507
(lp2508
g17
asS'provision'
p2509
(lp2510
g5
asS'discuss'
p2511
(lp2512
g18
ag19
asS'handofgod'
p2513
(lp2514
g5
asS'term'
p2515
(lp2516
g8
ag18
asS'garybailey'
p2517
(lp2518
g4
asS'name'
p2519
(lp2520
g8
ag26
ag19
ag12
asS'ahs'
p2521
(lp2522
g27
asS'opera'
p2523
(lp2524
g8
ag5
ag18
asS'james'
p2525
(lp2526
g17
asS'drop'
p2527
(lp2528
g8
ag17
ag5
ag11
asS'trainwreck'
p2529
(lp2530
g27
ag19
asS'outrageously'
p2531
(lp2532
g27
asS'rock'
p2533
(lp2534
g4
ag27
ag19
ag12
asS'quarter'
p2535
(lp2536
g12
asS'concerts'
p2537
(lp2538
g4
asS'domain'
p2539
(lp2540
g4
asS'married'
p2541
(lp2542
g18
asS'badly'
p2543
(lp2544
g19
asS'ed'
p2545
(lp2546
g8
ag4
ag17
ag5
ag26
ag27
ag18
ag19
ag11
ag12
asS'revised'
p2547
(lp2548
g17
asS'podgodz'
p2549
(lp2550
g19
asS'yeah'
p2551
(lp2552
g5
ag19
asS'bradley'
p2553
(lp2554
g27
asS'catching'
p2555
(lp2556
g27
ag19
asS'haul'
p2557
(lp2558
g19
asS'year'
p2559
(lp2560
g8
ag4
ag17
ag5
ag26
ag27
ag18
ag19
ag12
asS'eu'
p2561
(lp2562
g8
ag27
ag18
ag12
asS'et'
p2563
(lp2564
g8
ag4
ag17
ag5
ag26
ag27
ag18
ag19
ag11
ag12
asS'happen'
p2565
(lp2566
g8
ag5
ag26
ag27
ag18
asS'alessia'
p2567
(lp2568
g4
asS'ep'
p2569
(lp2570
g8
ag4
ag17
ag5
ag26
ag27
ag18
ag19
ag11
ag12
asS'tried'
p2571
(lp2572
g8
ag26
ag27
ag12
asS'album'
p2573
(lp2574
g4
ag17
ag11
asS'living'
p2575
(lp2576
g27
ag12
asS'shown'
p2577
(lp2578
g18
asS'jackson'
p2579
(lp2580
g19
asS'opened'
p2581
(lp2582
g27
asS'reem'
p2583
(lp2584
g18
asS'space'
p2585
(lp2586
g19
asS'profit'
p2587
(lp2588
g8
ag12
asS'greeks'
p2589
(lp2590
g18
asS'generation'
p2591
(lp2592
g11
ag12
asS'looking'
p2593
(lp2594
g8
ag4
ag17
ag5
ag19
ag12
asS'mess'
p2595
(lp2596
g5
ag11
asS'seriously'
p2597
(lp2598
g26
asS'opener'
p2599
(lp2600
g4
ag19
asS'hacked'
p2601
(lp2602
g27
asS'internet'
p2603
(lp2604
g8
ag17
asS'burglary'
p2605
(lp2606
g19
asS'nudes'
p2607
(lp2608
g27
asS'viable'
p2609
(lp2610
g12
asS'shows'
p2611
(lp2612
g4
ag5
ag19
ag12
asS'screw'
p2613
(lp2614
g11
asS'theory'
p2615
(lp2616
g18
asS'unexpected'
p2617
(lp2618
g19
asS'cars'
p2619
(lp2620
g5
ag11
asS'million'
p2621
(lp2622
g17
ag26
ag19
asS'brooks'
p2623
(lp2624
g4
ag27
asS'quite'
p2625
(lp2626
g4
ag17
ag19
ag12
asS'hulu'
p2627
(lp2628
g5
asS'oasis'
p2629
(lp2630
g4
asS'complicated'
p2631
(lp2632
g17
asS'adoptions'
p2633
(lp2634
g8
asS'besides'
p2635
(lp2636
g11
asS'grandma'
p2637
(lp2638
g4
asS'moderncurses'
p2639
(lp2640
g17
asS'lisak'
p2641
(lp2642
g19
asS'cara'
p2643
(lp2644
g4
asS'upon'
p2645
(lp2646
g27
asS'card'
p2647
(lp2648
g17
ag5
ag12
asS'care'
p2649
(lp2650
g8
ag4
ag17
ag27
ag19
ag11
asS'yup'
p2651
(lp2652
g5
asS'aales'
p2653
(lp2654
g12
asS'tries'
p2655
(lp2656
g19
ag11
asS'suisse'
p2657
(lp2658
g4
asS'honest'
p2659
(lp2660
g27
ag19
ag11
ag12
asS'chevy'
p2661
(lp2662
g8
asS'spending'
p2663
(lp2664
g8
ag5
asS'place'
p2665
(lp2666
g8
ag4
ag5
ag26
ag27
ag12
asS'massive'
p2667
(lp2668
g26
ag11
asS'invitation'
p2669
(lp2670
g8
ag11
asS'promotion'
p2671
(lp2672
g17
asS'think'
p2673
(lp2674
g8
ag17
ag5
ag27
ag18
ag19
ag11
ag12
asS'waited'
p2675
(lp2676
g4
asS'first'
p2677
(lp2678
g4
ag5
ag26
ag27
ag19
ag12
asS'carney'
p2679
(lp2680
g4
asS'cognos'
p2681
(lp2682
g8
asS'teases'
p2683
(lp2684
g12
asS'twerktwerk'
p2685
(lp2686
g19
asS'one'
p2687
(lp2688
g8
ag4
ag17
ag5
ag26
ag27
ag18
ag19
ag11
ag12
asS'clumsy'
p2689
(lp2690
g27
asS'fast'
p2691
(lp2692
g17
ag19
asS'directly'
p2693
(lp2694
g17
ag11
asS'ironman'
p2695
(lp2696
g19
asS'vote'
p2697
(lp2698
g8
ag27
asS'impossible'
p2699
(lp2700
g19
ag12
asS'sounds'
p2701
(lp2702
g5
ag12
asS'open'
p2703
(lp2704
g8
ag4
ag17
ag27
ag19
asS'tomorrow'
p2705
(lp2706
g8
ag4
ag17
ag5
ag26
ag27
ag19
ag11
ag12
asS'ont'
p2707
(lp2708
g8
ag4
ag17
ag5
ag27
ag18
ag19
ag12
asS'millions'
p2709
(lp2710
g17
asS'sheep'
p2711
(lp2712
g19
asS'city'
p2713
(lp2714
g8
ag4
ag27
ag19
asS'given'
p2715
(lp2716
g17
ag5
ag11
asS'workaround'
p2717
(lp2718
g8
asS'caught'
p2719
(lp2720
g19
ag11
asS'europe'
p2721
(lp2722
g18
asS'designer'
p2723
(lp2724
g12
asS'anyone'
p2725
(lp2726
g8
ag4
ag17
ag5
ag27
ag18
ag19
ag11
asS'mccartney'
p2727
(lp2728
g27
asS'tragic'
p2729
(lp2730
g27
asS'shoppers'
p2731
(lp2732
g5
ag26
asS'white'
p2733
(lp2734
g4
ag26
ag27
asS'bits'
p2735
(lp2736
g19
asS'west'
p2737
(lp2738
g8
ag19
asS'friend'
p2739
(lp2740
g8
ag4
ag27
ag19
ag11
ag12
asS'reminder'
p2741
(lp2742
g19
asS'tablettv'
p2743
(lp2744
g5
asS'releases'
p2745
(lp2746
g17
asS'season'
p2747
(lp2748
g4
ag17
ag5
ag27
asS'memo'
p2749
(lp2750
g8
asS'huh'
p2751
(lp2752
g26
asS'alan'
p2753
(lp2754
g5
ag27
ag19
asS'yearaka'
p2755
(lp2756
g19
asS'eckoxsoldier'
p2757
(lp2758
g17
asS'released'
p2759
(lp2760
g8
ag17
ag26
asS'ridiculous'
p2761
(lp2762
g8
ag27
ag19
asS'migrantmarch'
p2763
(lp2764
g18
asS'butt'
p2765
(lp2766
g8
ag4
ag26
asS'thai'
p2767
(lp2768
g4
asS'copy'
p2769
(lp2770
g8
ag17
asS'appreciated'
p2771
(lp2772
g19
asS'television'
p2773
(lp2774
g11
asS'unfortunately'
p2775
(lp2776
g8
asS'rival'
p2777
(lp2778
g5
ag26
asS'gotta'
p2779
(lp2780
g8
ag19
asS'summary'
p2781
(lp2782
g5
asS'namely'
p2783
(lp2784
g19
asS'future'
p2785
(lp2786
g17
ag19
asS'apples'
p2787
(lp2788
g11
asS'hfp'
p2789
(lp2790
g18
asS'cards'
p2791
(lp2792
g17
asS'cyberday'
p2793
(lp2794
g27
asS'browser'
p2795
(lp2796
g11
asS'pre'
p2797
(lp2798
g8
ag4
ag17
ag5
ag26
ag27
ag18
ag19
ag11
ag12
asS'portsmouth'
p2799
(lp2800
g19
asS'san'
p2801
(lp2802
g8
ag4
ag5
ag19
ag12
asS'topics'
p2803
(lp2804
g8
asS'turned'
p2805
(lp2806
g4
ag19
asS'sad'
p2807
(lp2808
g8
ag17
ag27
ag19
asS'ant'
p2809
(lp2810
g8
ag4
ag17
ag5
ag26
ag27
ag18
ag19
ag11
ag12
asS'say'
p2811
(lp2812
g8
ag17
ag5
ag26
ag27
ag18
ag19
ag11
ag12
asS'rained'
p2813
(lp2814
g4
ag26
asS'comedian'
p2815
(lp2816
g27
asS'voiced'
p2817
(lp2818
g18
asS'sells'
p2819
(lp2820
g17
ag19
asS'saw'
p2821
(lp2822
g27
ag19
asS'pebble'
p2823
(lp2824
g12
asS'sat'
p2825
(lp2826
g8
ag4
ag17
ag5
ag26
ag27
ag18
ag19
ag11
ag12
asS'form'
p2827
(lp2828
g8
ag4
ag26
ag27
ag18
ag19
ag11
ag12
asS'slybibliomaniac'
p2829
(lp2830
g19
asS'editing'
p2831
(lp2832
g19
asS'foreigner'
p2833
(lp2834
g4
asS'ideas'
p2835
(lp2836
g19
ag12
asS'note'
p2837
(lp2838
g8
ag18
ag11
asS'gotham'
p2839
(lp2840
g17
asS'squad'
p2841
(lp2842
g19
asS'take'
p2843
(lp2844
g8
ag4
ag26
ag18
ag19
ag11
ag12
asS'online'
p2845
(lp2846
g8
ag17
ag5
asS'upside'
p2847
(lp2848
g4
ag12
asS'hollyrpeete'
p2849
(lp2850
g8
asS'begin'
p2851
(lp2852
g4
ag27
ag19
ag12
asS'sure'
p2853
(lp2854
g8
ag4
ag17
ag5
ag19
ag11
asS'norman'
p2855
(lp2856
g12
asS'theatre'
p2857
(lp2858
g19
asS'normal'
p2859
(lp2860
g8
asS'track'
p2861
(lp2862
g4
asS'price'
p2863
(lp2864
g17
ag26
ag19
ag12
asS'knew'
p2865
(lp2866
g5
ag19
asS'arena'
p2867
(lp2868
g27
asS'paid'
p2869
(lp2870
g17
ag5
ag26
ag19
asS'guardiantech'
p2871
(lp2872
g12
asS'iws'
p2873
(lp2874
g27
asS'skinner'
p2875
(lp2876
g12
asS'seanflanery'
p2877
(lp2878
g17
asS'pair'
p2879
(lp2880
g5
asS'america'
p2881
(lp2882
g8
ag4
ag5
ag27
ag19
asS'icon'
p2883
(lp2884
g12
asS'forever'
p2885
(lp2886
g12
asS'sprinting'
p2887
(lp2888
g11
asS'surprising'
p2889
(lp2890
g4
ag19
asS'later'
p2891
(lp2892
g4
ag17
ag19
ag11
asS'sale'
p2893
(lp2894
g4
ag17
ag26
ag11
ag12
asS'mrs'
p2895
(lp2896
g5
ag18
asS'mttr'
p2897
(lp2898
g8
asS'squealing'
p2899
(lp2900
g11
asS'harvey'
p2901
(lp2902
g12
asS'shop'
p2903
(lp2904
g8
ag4
ag17
ag5
ag26
ag19
asS'madison'
p2905
(lp2906
g4
asS'shot'
p2907
(lp2908
g19
ag12
asS'show'
p2909
(lp2910
g8
ag4
ag17
ag5
ag27
ag18
ag19
ag11
ag12
asS'troc'
p2911
(lp2912
g27
ag12
asS'cheap'
p2913
(lp2914
g17
ag26
asS'bigosbumping'
p2915
(lp2916
g4
asS'eyesonfoxorg'
p2917
(lp2918
g8
asS'hack'
p2919
(lp2920
g8
ag4
ag17
ag27
ag11
asS'corner'
p2921
(lp2922
g8
asS'azerbaijan'
p2923
(lp2924
g18
asS'maine'
p2925
(lp2926
g27
asS'deportation'
p2927
(lp2928
g18
asS'frequent'
p2929
(lp2930
g5
asS'upgrade'
p2931
(lp2932
g8
ag11
asS'title'
p2933
(lp2934
g17
ag19
asS'daily'
p2935
(lp2936
g8
ag5
ag18
ag19
asS'cheeseburger'
p2937
(lp2938
g27
asS'behind'
p2939
(lp2940
g4
ag18
asS'crime'
p2941
(lp2942
g27
asS'going'
p2943
(lp2944
g8
ag4
ag17
ag5
ag26
ag27
ag18
ag19
ag11
ag12
asS'black'
p2945
(lp2946
g4
ag17
ag5
ag26
ag27
asS'wooo'
p2947
(lp2948
g4
asS'watching'
p2949
(lp2950
g5
ag26
ag27
ag19
ag11
asS'beatles'
p2951
(lp2952
g4
ag19
asS'get'
p2953
(lp2954
g8
ag4
ag17
ag5
ag26
ag27
ag18
ag19
ag11
ag12
asS'merkel'
p2955
(lp2956
g18
asS'jazz'
p2957
(lp2958
g27
asS'freezing'
p2959
(lp2960
g8
asS'truly'
p2961
(lp2962
g26
ag12
asS'define'
p2963
(lp2964
g27
ag18
asS'cannot'
p2965
(lp2966
g8
ag18
ag19
asS'nearly'
p2967
(lp2968
g4
asS'seeeee'
p2969
(lp2970
g19
asS'ssd'
p2971
(lp2972
g8
asS'awaiting'
p2973
(lp2974
g5
asS'justified'
p2975
(lp2976
g5
ag26
asS'changingtheworld'
p2977
(lp2978
g27
asS'freaking'
p2979
(lp2980
g5
asS'prime'
p2981
(lp2982
g8
ag17
ag5
ag26
ag18
asS'macleansmag'
p2983
(lp2984
g18
asS'joked'
p2985
(lp2986
g27
asS'hayleyatwell'
p2987
(lp2988
g19
asS'leather'
p2989
(lp2990
g12
asS'frustrated'
p2991
(lp2992
g8
asS'fainted'
p2993
(lp2994
g18
asS'morning'
p2995
(lp2996
g8
ag4
ag17
ag5
ag19
ag11
ag12
asS'naked'
p2997
(lp2998
g27
asS'jokes'
p2999
(lp3000
g27
ag19
asS'barbaric'
p3001
(lp3002
g18
asS'stupid'
p3003
(lp3004
g18
asS'raunchy'
p3005
(lp3006
g4
asS'worries'
p3007
(lp3008
g12
asS'finishing'
p3009
(lp3010
g19
asS'amanda'
p3011
(lp3012
g17
asS'husband'
p3013
(lp3014
g5
ag27
asS'gleeful'
p3015
(lp3016
g19
asS'arrival'
p3017
(lp3018
g5
asS'battlers'
p3019
(lp3020
g8
asS'concert'
p3021
(lp3022
g4
asS'marnie'
p3023
(lp3024
g17
asS'keyboard'
p3025
(lp3026
g11
asS'ends'
p3027
(lp3028
g8
ag4
ag27
ag19
ag11
ag12
asS'lnr'
p3029
(lp3030
g18
asS'turntable'
p3031
(lp3032
g5
asS'maysoonzayid'
p3033
(lp3034
g4
asS'calendar'
p3035
(lp3036
g8
ag27
asS'jacobrossi'
p3037
(lp3038
g11
asS'wonder'
p3039
(lp3040
g26
ag19
ag11
asS'planet'
p3041
(lp3042
g8
ag27
asS'leaning'
p3043
(lp3044
g11
asS'ways'
p3045
(lp3046
g8
ag17
ag18
ag11
asS'jumped'
p3047
(lp3048
g12
asS'review'
p3049
(lp3050
g17
ag5
ag27
ag19
asS'ibcshow'
p3051
(lp3052
g8
asS'thurs'
p3053
(lp3054
g8
ag4
ag17
ag5
ag27
ag18
ag19
ag11
ag12
asS'colours'
p3055
(lp3056
g18
asS'pump'
p3057
(lp3058
g4
asS'strawbsoda'
p3059
(lp3060
g5
asS'teens'
p3061
(lp3062
g8
asS'reading'
p3063
(lp3064
g17
asS'across'
p3065
(lp3066
g17
ag5
asS'tux'
p3067
(lp3068
g4
asS'scoring'
p3069
(lp3070
g19
asS'jobs'
p3071
(lp3072
g8
asS'august'
p3073
(lp3074
g8
ag4
ag17
ag5
ag19
ag12
asS'thunderstruck'
p3075
(lp3076
g4
asS'screen'
p3077
(lp3078
g8
ag17
ag5
ag27
ag19
ag11
asS'thevoice'
p3079
(lp3080
g27
asS'dome'
p3081
(lp3082
g19
asS'blame'
p3083
(lp3084
g18
asS'clayton'
p3085
(lp3086
g8
asS'awards'
p3087
(lp3088
g27
asS'navigation'
p3089
(lp3090
g12
asS'xbone'
p3091
(lp3092
g8
asS'article'
p3093
(lp3094
g8
ag27
asS'come'
p3095
(lp3096
g8
ag4
ag17
ag5
ag27
ag19
ag11
ag12
asS'pixels'
p3097
(lp3098
g19
asS'jb'
p3099
(lp3100
g12
asS'saverday'
p3101
(lp3102
g19
asS'dates'
p3103
(lp3104
g8
ag17
ag27
ag11
asS'mans'
p3105
(lp3106
g18
ag19
asS'isntall'
p3107
(lp3108
g8
asS'many'
p3109
(lp3110
g8
ag17
ag26
ag27
ag18
ag19
ag11
asS'region'
p3111
(lp3112
g5
asS'quiet'
p3113
(lp3114
g8
asS'moni'
p3115
(lp3116
g5
ag19
asS'perlmutations'
p3117
(lp3118
g5
asS'personal'
p3119
(lp3120
g8
ag27
asS'tour'
p3121
(lp3122
g4
ag27
asS'berry'
p3123
(lp3124
g8
ag4
asS'guardians'
p3125
(lp3126
g19
asS'lizzlie'
p3127
(lp3128
g5
asS'prequel'
p3129
(lp3130
g17
asS'comes'
p3131
(lp3132
g27
ag12
asS'among'
p3133
(lp3134
g27
ag19
asS'fi'
p3135
(lp3136
g8
ag4
ag17
ag5
ag26
ag27
ag18
ag19
ag11
ag12
asS'key'
p3137
(lp3138
g8
ag19
ag11
ag12
asS'bricks'
p3139
(lp3140
g8
asS'effective'
p3141
(lp3142
g5
asS'period'
p3143
(lp3144
g11
asS'football'
p3145
(lp3146
g12
asS'satisfaction'
p3147
(lp3148
g11
asS'anti'
p3149
(lp3150
g26
ag27
ag19
asS'approval'
p3151
(lp3152
g11
asS'cancel'
p3153
(lp3154
g5
asS'biographer'
p3155
(lp3156
g8
asS'nicola'
p3157
(lp3158
g18
asS'renewals'
p3159
(lp3160
g11
asS'math'
p3161
(lp3162
g26
asS'considering'
p3163
(lp3164
g19
asS'arts'
p3165
(lp3166
g4
ag17
ag26
ag18
ag19
ag11
ag12
asS'pensandblues'
p3167
(lp3168
g19
asS'teddy'
p3169
(lp3170
g27
asS'encryption'
p3171
(lp3172
g8
asS'classic'
p3173
(lp3174
g19
asS'informed'
p3175
(lp3176
g12
asS'escalated'
p3177
(lp3178
g8
asS'mark'
p3179
(lp3180
g17
ag26
ag27
ag19
ag12
asS'workshop'
p3181
(lp3182
g8
ag26
asS'judging'
p3183
(lp3184
g5
asS'featuring'
p3185
(lp3186
g19
asS'wants'
p3187
(lp3188
g8
ag19
asS'direction'
p3189
(lp3190
g4
ag12
asS'shopping'
p3191
(lp3192
g8
ag5
ag26
ag19
asS'redeye'
p3193
(lp3194
g27
asS'nikon'
p3195
(lp3196
g26
asS'dramatic'
p3197
(lp3198
g26
asS'wake'
p3199
(lp3200
g4
ag18
ag19
asS'minister'
p3201
(lp3202
g18
asS'gunboat'
p3203
(lp3204
g18
asS'hashtag'
p3205
(lp3206
g26
asS'wilco'
p3207
(lp3208
g19
asS'actions'
p3209
(lp3210
g18
ag19
asS'sound'
p3211
(lp3212
g4
ag5
ag12
asS'varoufakis'
p3213
(lp3214
g18
asS'appneta'
p3215
(lp3216
g11
asS'winks'
p3217
(lp3218
g19
asS'worried'
p3219
(lp3220
g17
asS'cash'
p3221
(lp3222
g12
asS'career'
p3223
(lp3224
g27
asS'cure'
p3225
(lp3226
g19
asS'promising'
p3227
(lp3228
g11
asS'hmmmm'
p3229
(lp3230
g19
asS'antony'
p3231
(lp3232
g19
asS'taking'
p3233
(lp3234
g8
ag26
ag19
ag11
asS'ive'
p3235
(lp3236
g8
ag4
ag17
ag5
ag26
ag27
ag19
ag11
ag12
asS'appyea'
p3237
(lp3238
g12
asS'alcoholic'
p3239
(lp3240
g19
asS'coffee'
p3241
(lp3242
g12
asS'sleeping'
p3243
(lp3244
g26
asS'couples'
p3245
(lp3246
g18
asS'gringo'
p3247
(lp3248
g12
asS'good'
p3249
(lp3250
g8
ag4
ag17
ag5
ag26
ag27
ag19
ag11
asS'illustrates'
p3251
(lp3252
g18
asS'return'
p3253
(lp3254
g26
ag18
ag19
asS'protein'
p3255
(lp3256
g26
asS'technology'
p3257
(lp3258
g8
asS'worry'
p3259
(lp3260
g27
asS'pat'
p3261
(lp3262
g8
ag4
ag5
ag19
asS'imax'
p3263
(lp3264
g19
asS'april'
p3265
(lp3266
g17
ag18
ag12
asS'pax'
p3267
(lp3268
g8
asS'pay'
p3269
(lp3270
g5
ag26
ag19
asS'granted'
p3271
(lp3272
g26
asS'reminded'
p3273
(lp3274
g4
ag19
ag12
asS'lava'
p3275
(lp3276
g4
asS'amiibo'
p3277
(lp3278
g17
asS'ya'
p3279
(lp3280
g8
ag4
ag17
ag26
ag27
ag19
ag11
ag12
asS'pad'
p3281
(lp3282
g8
ag5
ag19
ag11
ag12
asS'stepped'
p3283
(lp3284
g18
asS'bring'
p3285
(lp3286
g17
ag27
ag18
ag12
asS'events'
p3287
(lp3288
g8
asS'pan'
p3289
(lp3290
g8
ag4
ag17
ag5
ag26
ag27
ag19
ag12
asS'week'
p3291
(lp3292
g8
ag4
ag17
ag26
ag27
ag19
ag11
ag12
asS'nh'
p3293
(lp3294
g4
ag17
ag26
ag27
ag19
asS'tadamzz'
p3295
(lp3296
g5
asS'finish'
p3297
(lp3298
g8
ag17
ag27
ag19
asS'bendgate'
p3299
(lp3300
g12
asS'acdc'
p3301
(lp3302
g4
asS'producers'
p3303
(lp3304
g8
asS'driven'
p3305
(lp3306
g19
asS'two'
p3307
(lp3308
g4
ag17
ag5
ag26
ag19
ag11
asS'changing'
p3309
(lp3310
g8
ag27
asS'totally'
p3311
(lp3312
g4
ag19
asS'tshirts'
p3313
(lp3314
g12
asS'reference'
p3315
(lp3316
g19
asS'teamgleason'
p3317
(lp3318
g8
asS'theater'
p3319
(lp3320
g19
asS'largely'
p3321
(lp3322
g19
asS'charger'
p3323
(lp3324
g12
asS'floor'
p3325
(lp3326
g11
asS'thiefs'
p3327
(lp3328
g4
asS'costs'
p3329
(lp3330
g17
asS'smartncaa'
p3331
(lp3332
g19
asS'model'
p3333
(lp3334
g17
ag27
ag11
asS'reward'
p3335
(lp3336
g17
asS'charged'
p3337
(lp3338
g8
ag5
asS'surprisingly'
p3339
(lp3340
g19
asS'gates'
p3341
(lp3342
g8
asS'money'
p3343
(lp3344
g4
ag17
ag26
ag19
ag12
asS'rest'
p3345
(lp3346
g8
ag4
ag17
ag5
ag27
ag18
ag19
ag11
ag12
asS'shouts'
p3347
(lp3348
g5
asS'civilized'
p3349
(lp3350
g18
asS'kill'
p3351
(lp3352
g4
ag17
ag19
ag11
ag12
asS'topped'
p3353
(lp3354
g8
ag18
asS'mongoose'
p3355
(lp3356
g17
asS'touch'
p3357
(lp3358
g11
asS'tis'
p3359
(lp3360
g17
ag26
ag18
ag19
ag11
asS'announcement'
p3361
(lp3362
g11
asS'feminist'
p3363
(lp3364
g27
asS'risers'
p3365
(lp3366
g5
asS'rose'
p3367
(lp3368
g17
ag11
asS'seems'
p3369
(lp3370
g18
ag19
asS'except'
p3371
(lp3372
g19
ag11
asS'bkilby'
p3373
(lp3374
g19
asS'beagle'
p3375
(lp3376
g17
asS'cc'
p3377
(lp3378
g8
ag4
ag17
ag5
ag26
ag27
ag18
ag19
ag11
ag12
asS'lets'
p3379
(lp3380
g4
ag17
ag12
asS'perth'
p3381
(lp3382
g4
asS'pjs'
p3383
(lp3384
g5
asS'dunham'
p3385
(lp3386
g27
asS'antman'
p3387
(lp3388
g19
asS'scheduled'
p3389
(lp3390
g17
ag26
asS'yxblyh'
p3391
(lp3392
g11
asS'around'
p3393
(lp3394
g8
ag17
ag5
ag26
ag27
ag18
ag19
ag11
ag12
asS'kills'
p3395
(lp3396
g17
ag19
asS'easily'
p3397
(lp3398
g12
asS'read'
p3399
(lp3400
g4
ag17
ag5
ag26
ag18
ag19
ag11
ag12
asS'stung'
p3401
(lp3402
g19
asS'psa'
p3403
(lp3404
g11
asS'gonna'
p3405
(lp3406
g8
ag4
ag5
ag19
ag12
asS'unveil'
p3407
(lp3408
g11
ag12
asS'early'
p3409
(lp3410
g4
ag17
ag19
ag12
asS'test'
p3411
(lp3412
g5
ag18
ag11
asS'mon'
p3413
(lp3414
g8
ag4
ag17
ag5
ag26
ag27
ag18
ag19
ag11
ag12
asS'mom'
p3415
(lp3416
g8
ag4
ag5
ag26
asS'world'
p3417
(lp3418
g8
ag4
ag17
ag5
ag26
ag27
ag18
ag19
ag12
asS'swatch'
p3419
(lp3420
g12
asS'migrant'
p3421
(lp3422
g18
asS'disappointed'
p3423
(lp3424
g4
ag19
asS'globes'
p3425
(lp3426
g27
asS'valentine'
p3427
(lp3428
g12
asS'adams'
p3429
(lp3430
g17
asS'pounds'
p3431
(lp3432
g8
asS'overhyped'
p3433
(lp3434
g26
asS'homegirl'
p3435
(lp3436
g4
asS'worthing'
p3437
(lp3438
g19
asS'gimme'
p3439
(lp3440
g11
asS'nose'
p3441
(lp3442
g26
ag12
asS'retailers'
p3443
(lp3444
g26
asS'nephews'
p3445
(lp3446
g19
asS'beverly'
p3447
(lp3448
g27
asS'clap'
p3449
(lp3450
g11
asS'interest'
p3451
(lp3452
g4
ag19
ag11
ag12
asS'climactic'
p3453
(lp3454
g26
asS'explaining'
p3455
(lp3456
g18
asS'reveals'
p3457
(lp3458
g11
asS'jaycyde'
p3459
(lp3460
g19
asS'draw'
p3461
(lp3462
g19
ag12
asS'competition'
p3463
(lp3464
g26
ag19
ag12
asS'chuck'
p3465
(lp3466
g4
asS'eddie'
p3467
(lp3468
g4
asS'alexis'
p3469
(lp3470
g18
asS'snatched'
p3471
(lp3472
g17
asS'table'
p3473
(lp3474
g8
ag17
ag5
ag26
ag27
ag18
ag12
asS'racial'
p3475
(lp3476
g19
asS'asaunders'
p3477
(lp3478
g8
asS'booming'
p3479
(lp3480
g12
asS'mood'
p3481
(lp3482
g4
ag5
asS'channel'
p3483
(lp3484
g5
asS'noon'
p3485
(lp3486
g5
ag27
ag19
ag12
asS'recorded'
p3487
(lp3488
g19
asS'exit'
p3489
(lp3490
g27
ag18
asS'dies'
p3491
(lp3492
g4
ag19
asS'badddddd'
p3493
(lp3494
g27
asS'felt'
p3495
(lp3496
g19
asS'business'
p3497
(lp3498
g8
ag12
asS'intimate'
p3499
(lp3500
g27
asS'internship'
p3501
(lp3502
g27
asS'equivalent'
p3503
(lp3504
g26
ag12
asS'hollande'
p3505
(lp3506
g18
asS'mayers'
p3507
(lp3508
g17
asS'streepthis'
p3509
(lp3510
g27
asS'drving'
p3511
(lp3512
g19
asS'exciting'
p3513
(lp3514
g5
ag19
ag11
asS'manufacturer'
p3515
(lp3516
g8
asS'whas'
p3517
(lp3518
g19
asS'domayne'
p3519
(lp3520
g12
asS'ok'
p3521
(lp3522
g8
ag4
ag17
ag5
ag26
ag27
ag18
ag19
ag11
ag12
asS'ace'
p3523
(lp3524
g8
ag4
ag5
ag26
ag27
ag18
ag19
ag11
ag12
asS'package'
p3525
(lp3526
g17
ag5
ag19
asS'wadey'
p3527
(lp3528
g4
asS'favorite'
p3529
(lp3530
g4
ag5
ag19
asS'stand'
p3531
(lp3532
g27
ag18
ag19
ag12
asS'neighbor'
p3533
(lp3534
g5
ag26
asS'act'
p3535
(lp3536
g8
ag4
ag17
ag26
ag27
ag18
ag19
ag11
ag12
asS'mixed'
p3537
(lp3538
g19
asS'mean'
p3539
(lp3540
g4
ag17
ag5
ag27
ag18
ag19
ag11
asS'os'
p3541
(lp3542
g8
ag4
ag17
ag5
ag26
ag27
ag18
ag19
ag11
ag12
asS'ladies'
p3543
(lp3544
g4
asS'weighs'
p3545
(lp3546
g11
asS'sarahvaughan'
p3547
(lp3548
g8
asS'johnhancockcbc'
p3549
(lp3550
g4
asS'gary'
p3551
(lp3552
g4
ag17
ag18
asS'financial'
p3553
(lp3554
g11
asS'blesses'
p3555
(lp3556
g5
asS'gomez'
p3557
(lp3558
g27
asS'technically'
p3559
(lp3560
g19
asS'amctheatres'
p3561
(lp3562
g19
asS'prepare'
p3563
(lp3564
g5
ag19
asS'area'
p3565
(lp3566
g11
asS'assumed'
p3567
(lp3568
g19
asS'hey'
p3569
(lp3570
g8
ag27
ag19
asS'lol'
p3571
(lp3572
g8
ag4
ag17
ag5
ag18
ag19
asS'ipho'
p3573
(lp3574
g11
ag12
asS'start'
p3575
(lp3576
g8
ag4
ag17
ag5
ag18
ag19
ag11
ag12
asS'lions'
p3577
(lp3578
g4
ag17
asS'low'
p3579
(lp3580
g8
ag4
ag17
ag27
ag18
ag19
ag11
ag12
asS'lot'
p3581
(lp3582
g8
ag4
ag17
ag5
ag26
ag19
ag12
asS'cultures'
p3583
(lp3584
g18
asS'ehh'
p3585
(lp3586
g19
asS'agreements'
p3587
(lp3588
g18
asS'tight'
p3589
(lp3590
g17
asS'seeker'
p3591
(lp3592
g18
asS'namang'
p3593
(lp3594
g12
asS'complete'
p3595
(lp3596
g5
ag27
asS'enough'
p3597
(lp3598
g5
ag19
asS'buggy'
p3599
(lp3600
g27
asS'jun'
p3601
(lp3602
g8
ag17
ag27
ag19
ag11
ag12
asS'jul'
p3603
(lp3604
g4
ag17
ag5
ag26
ag18
ag19
ag12
asS'yaya'
p3605
(lp3606
g12
asS'survived'
p3607
(lp3608
g19
asS'theriault'
p3609
(lp3610
g4
asS'trying'
p3611
(lp3612
g8
ag5
ag18
ag11
asS'buying'
p3613
(lp3614
g26
ag12
asS'handsome'
p3615
(lp3616
g19
asS'pull'
p3617
(lp3618
g17
asS'october'
p3619
(lp3620
g17
ag5
ag27
ag19
ag12
asS'comics'
p3621
(lp3622
g19
asS'bucket'
p3623
(lp3624
g4
asS'reapply'
p3625
(lp3626
g18
asS'taught'
p3627
(lp3628
g27
asS'site'
p3629
(lp3630
g27
ag11
asS'reflection'
p3631
(lp3632
g19
asS'nauss'
p3633
(lp3634
g4
asS'agree'
p3635
(lp3636
g27
ag18
ag19
asS'instacart'
p3637
(lp3638
g5
asS'detailed'
p3639
(lp3640
g26
asS'engine'
p3641
(lp3642
g8
ag17
asS'ac'
p3643
(lp3644
g8
ag4
ag17
ag5
ag26
ag27
ag18
ag19
ag11
ag12
asS'taylor'
p3645
(lp3646
g8
ag4
ag27
asS'deez'
p3647
(lp3648
g4
asS'ad'
p3649
(lp3650
g8
ag4
ag17
ag5
ag26
ag27
ag18
ag19
ag11
ag12
asS'videos'
p3651
(lp3652
g27
asS'cinema'
p3653
(lp3654
g19
asS'certain'
p3655
(lp3656
g5
ag19
asS'forgot'
p3657
(lp3658
g5
ag27
ag19
asS'sales'
p3659
(lp3660
g17
ag26
ag11
ag12
asS'watches'
p3661
(lp3662
g11
ag12
asS'general'
p3663
(lp3664
g4
asS'ap'
p3665
(lp3666
g8
ag4
ag17
ag5
ag26
ag27
ag18
ag19
ag11
ag12
asS'intro'
p3667
(lp3668
g17
asS'together'
p3669
(lp3670
g8
asS'nero'
p3671
(lp3672
g11
asS'walks'
p3673
(lp3674
g12
asS'acer'
p3675
(lp3676
g8
ag19
asS'forbesrussia'
p3677
(lp3678
g8
asS'explains'
p3679
(lp3680
g18
asS'cables'
p3681
(lp3682
g5
asS'clippy'
p3683
(lp3684
g8
asS'film'
p3685
(lp3686
g17
ag5
ag27
ag19
asS'cream'
p3687
(lp3688
g19
asS'stumbled'
p3689
(lp3690
g5
ag27
asS'smrecords'
p3691
(lp3692
g17
asS'retiring'
p3693
(lp3694
g8
asS'waxed'
p3695
(lp3696
g27
asS'drivers'
p3697
(lp3698
g5
asS'whiners'
p3699
(lp3700
g26
asS'roses'
p3701
(lp3702
g17
asS'supershow'
p3703
(lp3704
g4
asS'remarks'
p3705
(lp3706
g27
asS'sebpatrick'
p3707
(lp3708
g19
asS'breakfast'
p3709
(lp3710
g19
asS'friggin'
p3711
(lp3712
g8
asS'harp'
p3713
(lp3714
g17
ag5
asS'jakeareid'
p3715
(lp3716
g4
asS'shaun'
p3717
(lp3718
g19
asS'obsessed'
p3719
(lp3720
g4
asS'students'
p3721
(lp3722
g19
asS'spoilers'
p3723
(lp3724
g19
asS'finale'
p3725
(lp3726
g27
asS'reached'
p3727
(lp3728
g12
asS'important'
p3729
(lp3730
g5
ag12
asS'coverage'
p3731
(lp3732
g11
asS'chris'
p3733
(lp3734
g26
ag27
ag19
ag12
asS'cityman'
p3735
(lp3736
g8
asS'remaster'
p3737
(lp3738
g4
asS'britishisms'
p3739
(lp3740
g19
asS'alcohol'
p3741
(lp3742
g5
ag19
asS'booked'
p3743
(lp3744
g27
ag19
asS'thehumblesage'
p3745
(lp3746
g17
asS'calls'
p3747
(lp3748
g18
ag11
asS'wife'
p3749
(lp3750
g26
ag27
ag19
ag12
asS'sobbing'
p3751
(lp3752
g18
asS'wifi'
p3753
(lp3754
g12
asS'mohegan'
p3755
(lp3756
g27
asS'u'
(lp3757
g8
ag4
ag17
ag5
ag26
ag27
ag18
ag19
ag11
ag12
asS'adam'
p3758
(lp3759
g4
ag17
ag5
asS'jlaw'
p3760
(lp3761
g27
asS'chapterbooks'
p3762
(lp3763
g17
asS'resolution'
p3764
(lp3765
g8
asS'original'
p3766
(lp3767
g5
ag18
asS'roh'
p3768
(lp3769
g27
asS'forget'
p3770
(lp3771
g4
ag26
ag19
ag12
asS'pointing'
p3772
(lp3773
g12
asS'scj'
p3774
(lp3775
g27
asS'caused'
p3776
(lp3777
g26
asS'lack'
p3778
(lp3779
g4
ag17
ag5
ag26
ag27
asS'month'
p3780
(lp3781
g8
ag17
ag19
asS'microsofthelps'
p3782
(lp3783
g8
asS'code'
p3784
(lp3785
g12
asS'puchase'
p3786
(lp3787
g5
asS'talks'
p3788
(lp3789
g18
asS'follow'
p3790
(lp3791
g4
ag27
ag18
ag19
ag11
ag12
asS'revealed'
p3792
(lp3793
g18
asS'children'
p3794
(lp3795
g17
asS'carpet'
p3796
(lp3797
g27
asS'jessie'
p3798
(lp3799
g17
asS'treblebeth'
p3800
(lp3801
g19
asS'corps'
p3802
(lp3803
g19
asS'tv'
p3804
(lp3805
g17
ag5
ag26
ag27
ag11
ag12
asS'tu'
p3806
(lp3807
g8
ag4
ag17
ag5
ag26
ag27
ag18
ag19
ag11
ag12
asS'encourage'
p3808
(lp3809
g11
asS'thursday'
p3810
(lp3811
g8
ag4
ag17
ag5
ag27
ag18
ag19
ag11
ag12
asS'tomlennon'
p3812
(lp3813
g19
asS'spain'
p3814
(lp3815
g18
asS'th'
p3816
(lp3817
g8
ag4
ag17
ag5
ag26
ag27
ag18
ag19
ag11
ag12
asS'td'
p3818
(lp3819
g4
ag12
asS'enjoying'
p3820
(lp3821
g8
ag19
asS'presentation'
p3822
(lp3823
g19
asS'case'
p3824
(lp3825
g8
ag5
ag19
ag11
ag12
asS'woman'
p3826
(lp3827
g4
ag27
ag19
asS'worse'
p3828
(lp3829
g26
ag12
asS'confidential'
p3830
(lp3831
g8
asS'sitting'
p3832
(lp3833
g4
asS'far'
p3834
(lp3835
g8
ag5
ag19
ag12
asS'fantastic'
p3836
(lp3837
g19
asS'translations'
p3838
(lp3839
g8
asS'carefree'
p3840
(lp3841
g4
asS'fat'
p3842
(lp3843
g27
ag18
ag12
asS'scottarbeit'
p3844
(lp3845
g8
asS'fan'
p3846
(lp3847
g8
ag4
ag19
ag11
ag12
asS'decide'
p3848
(lp3849
g5
ag19
asS'moncton'
p3850
(lp3851
g4
asS'vacationing'
p3852
(lp3853
g5
asS'sony'
p3854
(lp3855
g11
asS'ticket'
p3856
(lp3857
g4
ag27
ag19
asS'difference'
p3858
(lp3859
g12
asS'showings'
p3860
(lp3861
g19
asS'cable'
p3862
(lp3863
g5
asS'angus'
p3864
(lp3865
g4
asS'heist'
p3866
(lp3867
g19
asS'wsj'
p3868
(lp3869
g27
ag11
asS'list'
p3870
(lp3871
g8
ag4
ag17
ag5
ag26
ag27
ag18
ag19
ag11
ag12
asS'theaters'
p3872
(lp3873
g19
asS'xzav'
p3874
(lp3875
g19
asS'neckcellent'
p3876
(lp3877
g19
asS'large'
p3878
(lp3879
g19
ag12
asS'dinosaur'
p3880
(lp3881
g8
asS'sassy'
p3882
(lp3883
g27
asS'small'
p3884
(lp3885
g8
ag17
ag19
asS'gang'
p3886
(lp3887
g19
asS'flick'
p3888
(lp3889
g19
asS'usatoday'
p3890
(lp3891
g19
asS'instagram'
p3892
(lp3893
g27
asS'ten'
p3894
(lp3895
g8
ag4
ag17
ag5
ag27
ag18
ag19
ag12
asS'gabeaul'
p3896
(lp3897
g8
ag11
asS'tea'
p3898
(lp3899
g8
ag17
ag26
ag27
ag18
ag19
ag12
asS'vofescaflowne'
p3900
(lp3901
g17
asS'past'
p3902
(lp3903
g27
ag11
asS'discussing'
p3904
(lp3905
g18
asS'design'
p3906
(lp3907
g17
ag11
ag12
asS'pass'
p3908
(lp3909
g8
ag18
ag19
asS'exodus'
p3910
(lp3911
g18
asS'micohalili'
p3912
(lp3913
g19
asS'thegirlwho'
p3914
(lp3915
g17
asS'stood'
p3916
(lp3917
g18
asS'sub'
p3918
(lp3919
g8
ag17
ag5
ag19
asS'cast'
p3920
(lp3921
g8
ag4
ag17
ag5
ag27
ag19
asS'sun'
p3922
(lp3923
g8
ag4
ag17
ag5
ag27
ag18
ag19
ag11
ag12
asS'anniversary'
p3924
(lp3925
g8
ag27
asS'schumer'
p3926
(lp3927
g27
asS'version'
p3928
(lp3929
g8
ag17
ag12
asS'localmemphis'
p3930
(lp3931
g27
asS'cinemas'
p3932
(lp3933
g19
asS'amazonuk'
p3934
(lp3935
g5
asS'tribute'
p3936
(lp3937
g4
asS'public'
p3938
(lp3939
g8
ag17
ag5
asS'handy'
p3940
(lp3941
g12
asS'movement'
p3942
(lp3943
g17
ag18
asS'minisuit'
p3944
(lp3945
g12
asS'full'
p3946
(lp3947
g8
ag17
ag5
ag26
ag19
asS'mull'
p3948
(lp3949
g27
ag19
asS'theverge'
p3950
(lp3951
g26
asS'thisisrobthomas'
p3952
(lp3953
g5
asS'forgive'
p3954
(lp3955
g19
asS'hours'
p3956
(lp3957
g8
ag4
ag5
ag26
ag27
ag18
ag11
ag12
asS'operating'
p3958
(lp3959
g8
ag5
asS'bitlocker'
p3960
(lp3961
g8
asS'eventful'
p3962
(lp3963
g19
asS'november'
p3964
(lp3965
g8
ag4
ag17
ag27
ag12
asS'strong'
p3966
(lp3967
g18
ag12
asS'fatter'
p3968
(lp3969
g27
asS'search'
p3970
(lp3971
g8
ag17
ag26
asS'zone'
p3972
(lp3973
g18
ag19
asS'ahead'
p3974
(lp3975
g4
ag11
asS'allows'
p3976
(lp3977
g19
ag11
asS'experience'
p3978
(lp3979
g5
ag19
ag12
asS'prior'
p3980
(lp3981
g19
ag11
asS'minsk'
p3982
(lp3983
g18
asS'arent'
p3984
(lp3985
g5
ag27
ag18
ag19
ag11
asS'survival'
p3986
(lp3987
g18
asS'pick'
p3988
(lp3989
g17
ag19
ag12
asS'action'
p3990
(lp3991
g18
ag19
ag11
asS'cobbo'
p3992
(lp3993
g18
asS'options'
p3994
(lp3995
g8
ag19
asS'via'
p3996
(lp3997
g8
ag5
ag26
ag27
ag18
ag19
ag11
ag12
asS'followed'
p3998
(lp3999
g4
ag19
asS'wearables'
p4000
(lp4001
g12
asS'family'
p4002
(lp4003
g4
ag5
ag27
ag19
asS'suddenly'
p4004
(lp4005
g5
ag19
asS'organising'
p4006
(lp4007
g18
asS'deals'
p4008
(lp4009
g26
asS'put'
p4010
(lp4011
g8
ag17
ag26
ag18
ag19
ag11
ag12
asS'vip'
p4012
(lp4013
g27
asS'octobertrying'
p4014
(lp4015
sS'gigs'
p4016
(lp4017
g19
asS'smoothfuego'
p4018
(lp4019
g19
asS'chunks'
p4020
(lp4021
g5
asS'establish'
p4022
(lp4023
g4
asS'select'
p4024
(lp4025
g12
asS'eye'
p4026
(lp4027
g8
ag27
ag18
ag19
asS'takes'
p4028
(lp4029
g8
asS'ronettes'
p4030
(lp4031
g4
asS'charge'
p4032
(lp4033
g8
ag17
ag5
ag12
asS'mfclive'
p4034
(lp4035
g4
asS'taken'
p4036
(lp4037
g11
ag12
asS'minor'
p4038
(lp4039
g11
asS'teen'
p4040
(lp4041
g8
ag26
ag18
asS'flat'
p4042
(lp4043
g27
ag19
asS'door'
p4044
(lp4045
g17
ag5
ag18
ag12
asS'crockpot'
p4046
(lp4047
g19
asS'nevergiveup'
p4048
(lp4049
g8
asS'company'
p4050
(lp4051
g8
ag17
ag26
ag12
asS'spoils'
p4052
(lp4053
g19
asS'putin'
p4054
(lp4055
g8
ag18
asS'yolanda'
p4056
(lp4057
g17
asS'excuse'
p4058
(lp4059
g26
asS'flag'
p4060
(lp4061
g18
asS'stick'
p4062
(lp4063
g26
asS'broke'
p4064
(lp4065
g5
ag26
ag19
asS'demi'
p4066
(lp4067
g27
asS'jonyiveparody'
p4068
(lp4069
g11
asS'karaoke'
p4070
(lp4071
g4
asS'glad'
p4072
(lp4073
g19
ag12
asS'surfacephone'
p4074
(lp4075
g8
asS'billgates'
p4076
(lp4077
g8
asS'keeping'
p4078
(lp4079
g26
asS'hour'
p4080
(lp4081
g8
ag4
ag17
ag5
ag26
ag27
ag18
ag11
ag12
asS'chardonnay'
p4082
(lp4083
g27
asS'science'
p4084
(lp4085
g17
asS'sucks'
p4086
(lp4087
g26
asS'installing'
p4088
(lp4089
g8
asS'dev'
p4090
(lp4091
g8
ag19
ag11
ag12
asS'remain'
p4092
(lp4093
g26
ag19
asS'learn'
p4094
(lp4095
g8
ag19
asS'marc'
p4096
(lp4097
g8
ag17
ag18
ag12
asS'dec'
p4098
(lp4099
g4
ag17
ag5
ag27
ag18
ag19
asS'refugee'
p4100
(lp4101
g18
asS'complain'
p4102
(lp4103
g17
ag26
ag11
asS'history'
p4104
(lp4105
g8
ag18
ag19
asS'beautiful'
p4106
(lp4107
g5
ag27
ag11
asS'purchases'
p4108
(lp4109
g26
asS'compare'
p4110
(lp4111
g26
ag27
ag12
asS'atm'
p4112
(lp4113
g27
ag18
asS'scam'
p4114
(lp4115
g26
asS'gqmenoftheyear'
p4116
(lp4117
g27
asS'share'
p4118
(lp4119
g4
ag5
ag27
asS'states'
p4120
(lp4121
g27
ag18
asS'numbers'
p4122
(lp4123
g12
asS'ave'
p4124
(lp4125
g8
ag4
ag17
ag5
ag26
ag27
ag18
ag19
ag11
ag12
asS'sphero'
p4126
(lp4127
g17
asS'tomwarren'
p4128
(lp4129
g8
asS'offspring'
p4130
(lp4131
g19
asS'biography'
p4132
(lp4133
g18
asS'information'
p4134
(lp4135
g8
asS'needs'
p4136
(lp4137
g18
asS'court'
p4138
(lp4139
g5
ag27
asS'goal'
p4140
(lp4141
g12
asS'awkward'
p4142
(lp4143
g5
asS'caption'
p4144
(lp4145
g12
asS'rather'
p4146
(lp4147
g19
asS'comfort'
p4148
(lp4149
g26
ag27
asS'shipped'
p4150
(lp4151
g17
ag5
asS'stayed'
p4152
(lp4153
g19
asS'businessinsider'
p4154
(lp4155
g8
asS'bzamayo'
p4156
(lp4157
g17
asS'either'
p4158
(lp4159
g19
asS'okay'
p4160
(lp4161
g19
asS'plans'
p4162
(lp4163
g17
ag26
ag18
asS'rudd'
p4164
(lp4165
g19
asS'theandyrok'
p4166
(lp4167
g19
asS'qchf'
p4168
(lp4169
g26
asS'xenoblade'
p4170
(lp4171
g17
asS'sneak'
p4172
(lp4173
g5
ag26
asS'doubts'
p4174
(lp4175
g19
asS'fb'
p4176
(lp4177
g19
ag11
asS'plane'
p4178
(lp4179
g8
ag4
ag27
asS'coming'
p4180
(lp4181
g8
ag4
ag17
ag5
ag19
ag11
ag12
asS'invasion'
p4182
(lp4183
g18
asS'response'
p4184
(lp4185
g18
ag19
asS'short'
p4186
(lp4187
g19
ag11
asS'imaginations'
p4188
(lp4189
g19
asS'brady'
p4190
(lp4191
g4
asS'crowded'
p4192
(lp4193
g19
asS'excitment'
p4194
(lp4195
g11
asS'tweeting'
p4196
(lp4197
g4
asS'register'
p4198
(lp4199
g8
asS'theshrinkingman'
p4200
(lp4201
g19
asS'dragon'
p4202
(lp4203
g8
ag19
asS'primeday'
p4204
(lp4205
g26
asS'bigfan'
p4206
(lp4207
g19
asS'media'
p4208
(lp4209
g26
ag27
ag11
asS'pleasure'
p4210
(lp4211
g4
asS'rentals'
p4212
(lp4213
g17
asS'dream'
p4214
(lp4215
g18
ag19
asS'playing'
p4216
(lp4217
g4
ag17
ag11
asS'rottweiler'
p4218
(lp4219
g11
asS'help'
p4220
(lp4221
g8
ag17
ag5
ag26
ag18
ag19
ag12
asS'september'
p4222
(lp4223
g8
ag4
ag17
ag5
ag26
ag11
ag12
asS'lugs'
p4224
(lp4225
g12
asS'emmanuel'
p4226
(lp4227
g18
asS'soon'
p4228
(lp4229
g4
ag17
ag12
asS'trade'
p4230
(lp4231
g19
asS'paper'
p4232
(lp4233
g8
ag19
asS'scott'
p4234
(lp4235
g8
ag17
asS'startschoolyearoffwithnosleep'
p4236
(lp4237
g4
asS'hell'
p4238
(lp4239
g8
ag4
ag17
ag5
ag26
ag27
ag19
asS'mcdonalds'
p4240
(lp4241
g8
asS'spoof'
p4242
(lp4243
g27
asS'islam'
p4244
(lp4245
g18
asS'bummed'
p4246
(lp4247
g5
asS'actually'
p4248
(lp4249
g27
ag19
asS'late'
p4250
(lp4251
g8
ag4
ag17
ag5
ag27
ag18
ag19
ag11
ag12
asS'blenders'
p4252
(lp4253
g5
asS'girl'
p4254
(lp4255
g4
ag17
ag27
ag18
ag19
asS'bout'
p4256
(lp4257
g19
asS'catalonia'
p4258
(lp4259
g18
asS'might'
p4260
(lp4261
g8
ag4
ag18
ag19
ag12
asS'deets'
p4262
(lp4263
g19
asS'someone'
p4264
(lp4265
g8
ag4
ag5
ag19
asS'somebody'
p4266
(lp4267
g4
ag5
ag11
asS'calm'
p4268
(lp4269
g27
ag11
asS'yo'
p4270
(lp4271
g8
ag4
ag17
ag5
ag27
ag18
ag19
ag11
ag12
asS'seeking'
p4272
(lp4273
g18
asS'food'
p4274
(lp4275
g4
ag17
asS'subtitled'
p4276
(lp4277
g19
asS'breakingnews'
p4278
(lp4279
g19
asS'kingshillchat'
p4280
(lp4281
g5
asS'anticipated'
p4282
(lp4283
g19
asS'yr'
p4284
(lp4285
g8
ag27
ag18
ag19
asS'buzz'
p4286
(lp4287
g19
asS'bigger'
p4288
(lp4289
g17
ag26
ag12
asS'sucked'
p4290
(lp4291
g26
asS'desperately'
p4292
(lp4293
g17
asS'eurocrats'
p4294
(lp4295
g18
asS'always'
p4296
(lp4297
g8
ag17
ag11
asS'presented'
p4298
(lp4299
g27
asS'seinfeld'
p4300
(lp4301
g27
asS'bless'
p4302
(lp4303
g5
ag18
ag19
asS'stopped'
p4304
(lp4305
g8
asS'olwenhoff'
p4306
(lp4307
g19
asS'found'
p4308
(lp4309
g8
ag17
ag5
ag27
ag19
asS'shocking'
p4310
(lp4311
g8
asS'sfujita'
p4312
(lp4313
g8
asS'trailer'
p4314
(lp4315
g5
ag19
asS'heavy'
p4316
(lp4317
g5
ag12
asS'reactions'
p4318
(lp4319
g19
asS'realer'
p4320
(lp4321
g27
asS'everyone'
p4322
(lp4323
g18
ag19
ag12
asS'guests'
p4324
(lp4325
g19
asS'weight'
p4326
(lp4327
g18
asS'idek'
p4328
(lp4329
g4
asS'sartorial'
p4330
(lp4331
g19
asS'house'
p4332
(lp4333
g5
ag27
ag19
asS'hard'
p4334
(lp4335
g8
ag27
ag18
ag19
ag11
asS'idea'
p4336
(lp4337
g18
ag19
ag12
asS'exorbitant'
p4338
(lp4339
g17
asS'raydonovan'
p4340
(lp4341
g5
asS'ipadpropower'
p4342
(lp4343
sS'expect'
p4344
(lp4345
g17
ag5
ag18
ag19
ag11
ag12
asS'mainframes'
p4346
(lp4347
g12
asS'quantum'
p4348
(lp4349
g18
ag19
asS'beyond'
p4350
(lp4351
g8
asS'event'
p4352
(lp4353
g8
ag19
ag11
ag12
asS'really'
p4354
(lp4355
g4
ag5
ag26
ag19
ag11
ag12
asS'leave'
p4356
(lp4357
g8
ag5
ag18
ag19
asS'ditch'
p4358
(lp4359
g27
asS'missed'
p4360
(lp4361
g8
ag17
ag26
ag19
ag11
asS'ftw'
p4362
(lp4363
g8
ag17
ag26
ag27
ag18
ag12
asS'item'
p4364
(lp4365
g17
ag5
ag26
asS'since'
p4366
(lp4367
g8
ag4
ag17
ag5
ag27
ag19
ag12
asS'domestically'
p4368
(lp4369
g19
asS'douglas'
p4370
(lp4371
g19
asS'hill'
p4372
(lp4373
g4
ag5
ag27
asS'myweekinmovies'
p4374
(lp4375
g19
asS'print'
p4376
(lp4377
g8
ag26
ag11
asS'offline'
p4378
(lp4379
g8
asS'issue'
p4380
(lp4381
g17
asS'highway'
p4382
(lp4383
g4
asS'ass'
p4384
(lp4385
g8
ag4
ag17
ag5
ag26
ag27
ag18
ag19
ag11
ag12
asS'bistro'
p4386
(lp4387
g27
asS'pun'
p4388
(lp4389
g19
asS'refusal'
p4390
(lp4391
g17
asS'earns'
p4392
(lp4393
g8
ag26
asS'bass'
p4394
(lp4395
g5
asS'lawrence'
p4396
(lp4397
g27
asS'timeline'
p4398
(lp4399
g8
asS'mmw'
p4400
(lp4401
g12
asS'friday'
p4402
(lp4403
g8
ag4
ag17
ag5
ag26
ag27
ag19
ag11
ag12
asS'story'
p4404
(lp4405
g8
ag26
ag18
ag19
asS'pub'
p4406
(lp4407
g8
ag17
ag5
ag19
asS'pleasant'
p4408
(lp4409
g5
asS'reason'
p4410
(lp4411
g8
ag4
ag17
ag27
ag19
ag11
asS'base'
p4412
(lp4413
g27
ag19
ag12
asS'giveaway'
p4414
(lp4415
g19
asS'members'
p4416
(lp4417
g4
ag5
ag26
ag18
asS'imagine'
p4418
(lp4419
g18
asS'ask'
p4420
(lp4421
g8
ag17
ag5
ag18
ag19
asS'contactcenter'
p4422
(lp4423
g8
asS'hermes'
p4424
(lp4425
g11
asS'guy'
p4426
(lp4427
g8
ag4
ag17
ag19
asS'bumped'
p4428
(lp4429
g5
asS'owners'
p4430
(lp4431
g8
ag11
asS'benefits'
p4432
(lp4433
g17
asS'revival'
p4434
(lp4435
g11
asS'launch'
p4436
(lp4437
g26
ag11
ag12
asS'terrible'
p4438
(lp4439
g8
asS'cheering'
p4440
(lp4441
g18
asS'american'
p4442
(lp4443
g4
ag5
ag27
ag19
asS'expecting'
p4444
(lp4445
g5
ag19
asS'w'
(lp4446
g8
ag4
ag17
ag5
ag26
ag27
ag18
ag19
ag11
ag12
asS'rainforest'
p4447
(lp4448
g17
ag18
asS'castle'
p4449
(lp4450
g4
ag17
ag5
asS'fallen'
p4451
(lp4452
g11
asS'major'
p4453
(lp4454
g8
ag19
ag11
ag12
asS'dont'
p4455
(lp4456
g8
ag5
asS'worn'
p4457
(lp4458
g12
asS'feel'
p4459
(lp4460
g8
ag17
ag5
ag26
ag27
ag19
ag11
asS'girls'
p4461
(lp4462
g27
asS'netted'
p4463
(lp4464
g26
asS'number'
p4465
(lp4466
g8
ag17
ag26
ag19
ag12
asS'fancy'
p4467
(lp4468
g19
asS'traveled'
p4469
(lp4470
g8
asS'nacr'
p4471
(lp4472
g8
asS'sisters'
p4473
(lp4474
g19
asS'smaller'
p4475
(lp4476
g17
asS'done'
p4477
(lp4478
g5
ag27
ag18
ag19
ag11
asS'least'
p4479
(lp4480
g4
ag17
ag5
ag19
asS'rfkennedy'
p4481
(lp4482
g18
asS'miss'
p4483
(lp4484
g8
ag4
ag17
ag5
ag26
ag19
ag11
ag12
asS'ecommerce'
p4485
(lp4486
g26
asS'guess'
p4487
(lp4488
g8
ag17
asS'heads'
p4489
(lp4490
g17
ag5
asS'guest'
p4491
(lp4492
g18
ag19
asS'script'
p4493
(lp4494
g19
asS'leading'
p4495
(lp4496
g18
asS'franken'
p4497
(lp4498
g19
asS'hangs'
p4499
(lp4500
g4
asS'noms'
p4501
(lp4502
g27
asS'station'
p4503
(lp4504
g17
asS'passed'
p4505
(lp4506
g8
ag19
asS'woohooo'
p4507
(lp4508
g26
asS'master'
p4509
(lp4510
g4
ag18
asS'store'
p4511
(lp4512
g17
ag5
ag18
ag11
ag12
asS'headache'
p4513
(lp4514
g8
asS'selling'
p4515
(lp4516
g18
ag12
asS'treasured'
p4517
(lp4518
g19
asS'option'
p4519
(lp4520
g8
ag17
ag19
asS'para'
p4521
(lp4522
g5
ag19
ag12
asS'park'
p4523
(lp4524
g4
ag19
asS'goldenbrookss'
p4525
(lp4526
g4
asS'mn'
p4527
(lp4528
g8
ag4
ag17
ag26
ag18
ag19
ag12
asS'part'
p4529
(lp4530
g8
ag17
ag5
ag26
ag27
ag18
ag19
ag11
ag12
asS'livestream'
p4531
(lp4532
g11
asS'zeppelin'
p4533
(lp4534
g4
asS'tfw'
p4535
(lp4536
g5
asS'believe'
p4537
(lp4538
g4
ag26
ag18
ag19
ag11
asS'grace'
p4539
(lp4540
g27
ag19
asS'apprentice'
p4541
(lp4542
g17
asS'peaked'
p4543
(lp4544
g19
asS'kind'
p4545
(lp4546
g17
ag5
ag26
ag27
ag19
asS'b'
(lp4547
g8
ag4
ag17
ag5
ag26
ag27
ag18
ag19
ag11
ag12
asS'double'
p4548
(lp4549
g17
ag19
asS'missjacksteezy'
p4550
(lp4551
g19
asS'recording'
p4552
(lp4553
g19
asS'geeking'
p4554
(lp4555
g19
asS'marriage'
p4556
(lp4557
g18
asS'supposed'
p4558
(lp4559
g17
ag5
ag26
asS'dani'
p4560
(lp4561
g27
asS'kindle'
p4562
(lp4563
g17
asS'treated'
p4564
(lp4565
g8
ag19
asS'remembers'
p4566
(lp4567
g4
asS'gracerandolph'
p4568
(lp4569
g19
asS'outta'
p4570
(lp4571
g19
asS'appletvs'
p4572
(lp4573
g17
asS'basically'
p4574
(lp4575
g26
asS'wasnt'
p4576
(lp4577
g8
asS'randomly'
p4578
(lp4579
g19
asS'fabreciass'
p4580
(lp4581
g19
asS'sell'
p4582
(lp4583
g8
ag17
ag18
ag19
ag11
ag12
asS'lie'
p4584
(lp4585
g4
ag17
ag5
ag26
ag27
ag18
ag19
ag11
asS'wilson'
p4586
(lp4587
g4
asS'built'
p4588
(lp4589
g8
asS'dancing'
p4590
(lp4591
g4
asS'check'
p4592
(lp4593
g8
ag4
ag17
ag5
ag26
ag19
ag11
ag12
asS'vulnerabilities'
p4594
(lp4595
g8
asS'gameofkittens'
p4596
(lp4597
g5
asS'foxborough'
p4598
(lp4599
g4
asS'hrpositive'
p4600
(lp4601
g4
asS'walk'
p4602
(lp4603
g4
ag5
ag12
asS'also'
p4604
(lp4605
g8
ag4
ag17
ag5
ag26
ag18
ag19
asS'without'
p4606
(lp4607
g8
ag5
ag19
ag11
asS'square'
p4608
(lp4609
g12
asS'dundas'
p4610
(lp4611
g4
asS'finding'
p4612
(lp4613
g5
asS'transparent'
p4614
(lp4615
g5
asS'failing'
p4616
(lp4617
g27
asS'play'
p4618
(lp4619
g8
ag4
ag17
ag27
ag19
ag11
asS'added'
p4620
(lp4621
g17
ag12
asS'cemented'
p4622
(lp4623
g27
asS'electric'
p4624
(lp4625
g4
ag18
ag19
asS'exec'
p4626
(lp4627
g11
asS'kai'
p4628
(lp4629
g19
asS'butitshisfavoriteband'
p4630
(lp4631
g4
asS'mace'
p4632
(lp4633
g27
asS'experiences'
p4634
(lp4635
g12
asS'plan'
p4636
(lp4637
g8
ag4
ag17
ag5
ag26
ag27
ag18
ag19
ag11
asS'nothing'
p4638
(lp4639
g8
ag4
ag19
ag11
asS'seasons'
p4640
(lp4641
g5
asS'amirosie'
p4642
(lp4643
g19
asS'urbanartsent'
p4644
(lp4645
g17
asS'funnier'
p4646
(lp4647
g27
asS'understands'
p4648
(lp4649
g18
asS'thebertshow'
p4650
(lp4651
g27
asS'mobile'
p4652
(lp4653
g8
ag26
ag12
asS'kj'
p4654
(lp4655
g4
asS'clear'
p4656
(lp4657
g12
asS'humanitarian'
p4658
(lp4659
g18
asS'cover'
p4660
(lp4661
g4
ag5
ag26
ag18
ag19
ag11
ag12
asS'kw'
p4662
(lp4663
g8
ag17
ag5
ag12
asS'clean'
p4664
(lp4665
g8
ag18
asS'parody'
p4666
(lp4667
g27
ag19
ag11
asS'physics'
p4668
(lp4669
g18
asS'microsoft'
p4670
(lp4671
g8
ag11
ag12
asS'packs'
p4672
(lp4673
g12
asS'golf'
p4674
(lp4675
g19
asS'gold'
p4676
(lp4677
g4
ag27
ag19
ag11
asS'summer'
p4678
(lp4679
g19
asS'lordxreshead'
p4680
(lp4681
g19
asS'weapons'
p4682
(lp4683
g11
asS'carles'
p4684
(lp4685
g4
asS'cdu'
p4686
(lp4687
g18
asS'hyped'
p4688
(lp4689
g5
ag26
ag19
asS'newest'
p4690
(lp4691
g8
asS'fine'
p4692
(lp4693
g8
ag27
ag18
asS'find'
p4694
(lp4695
g8
ag5
ag26
ag27
ag19
ag11
ag12
asS'impact'
p4696
(lp4697
g8
ag17
ag26
asS'giant'
p4698
(lp4699
g17
ag5
asS'writer'
p4700
(lp4701
g19
asS'failed'
p4702
(lp4703
g8
ag26
ag18
asS'fellow'
p4704
(lp4705
g18
asS'pretty'
p4706
(lp4707
g4
ag5
ag26
ag27
ag19
asS'feminists'
p4708
(lp4709
g27
asS'ultron'
p4710
(lp4711
g19
asS'darwin'
p4712
(lp4713
g4
asS'begins'
p4714
(lp4715
g27
ag12
asS'hit'
p4716
(lp4717
g4
ag5
ag26
ag27
ag19
ag12
asS'distance'
p4718
(lp4719
g12
asS'reigate'
p4720
(lp4721
g19
asS'grocery'
p4722
(lp4723
g5
asS'trees'
p4724
(lp4725
g17
asS'cheaper'
p4726
(lp4727
g17
asS'eggs'
p4728
(lp4729
g19
asS'vatech'
p4730
(lp4731
g4
asS'feels'
p4732
(lp4733
g19
asS'actress'
p4734
(lp4735
g27
asS'germanymeta'
p4736
(lp4737
sS'damnit'
p4738
(lp4739
g17
asS'emails'
p4740
(lp4741
g17
ag5
asS'distraction'
p4742
(lp4743
g11
asS'budapest'
p4744
(lp4745
g18
asS'roles'
p4746
(lp4747
g27
ag19
asS'redefined'
p4748
(lp4749
g27
asS'common'
p4750
(lp4751
g26
ag18
ag11
asS'andysignore'
p4752
(lp4753
g19
asS'hype'
p4754
(lp4755
g5
ag26
ag27
ag19
ag11
ag12
asS'x'
(lp4756
g8
ag4
ag17
ag5
ag26
ag27
ag18
ag19
ag11
ag12
asS'pod'
p4757
(lp4758
g18
ag19
asS'sws'
p4759
(lp4760
g17
asS'wrote'
p4761
(lp4762
g27
ag19
asS'insane'
p4763
(lp4764
g8
asS'set'
p4765
(lp4766
g8
ag4
ag5
ag27
ag18
ag11
asS'art'
p4767
(lp4768
g8
ag4
ag17
ag5
ag26
ag27
ag18
ag19
ag11
ag12
asS'luxury'
p4769
(lp4770
g27
asS'sep'
p4771
(lp4772
g8
ag4
ag17
ag5
ag26
ag18
ag19
ag11
ag12
asS'startup'
p4773
(lp4774
g8
asS'arrives'
p4775
(lp4776
g5
ag19
asS'sex'
p4777
(lp4778
g8
ag27
asS'see'
p4779
(lp4780
g8
ag4
ag17
ag5
ag26
ag27
ag18
ag19
ag11
ag12
asS'dumb'
p4781
(lp4782
g19
asS'migration'
p4783
(lp4784
g18
asS'seo'
p4785
(lp4786
g17
asS'close'
p4787
(lp4788
g4
ag5
ag19
asS'angie'
p4789
(lp4790
g18
asS'paul'
p4791
(lp4792
g8
ag27
ag18
ag19
asS'nap'
p4793
(lp4794
g8
ag4
ag18
ag19
asS'bethany'
p4795
(lp4796
g27
asS'learns'
p4797
(lp4798
g8
asS'festivaluprise'
p4799
(lp4800
g8
asS'visiting'
p4801
(lp4802
g8
ag19
asS'movie'
p4803
(lp4804
g5
ag27
ag18
ag19
asS'wow'
p4805
(lp4806
g8
ag17
ag18
ag12
asS'please'
p4807
(lp4808
g8
ag17
ag26
ag18
ag12
asS'woo'
p4809
(lp4810
g8
ag4
ag5
ag26
ag27
ag18
asS'various'
p4811
(lp4812
g19
asS'guardian'
p4813
(lp4814
g18
ag19
ag12
asS'probably'
p4815
(lp4816
g4
ag17
ag19
asS'burned'
p4817
(lp4818
g12
asS'nope'
p4819
(lp4820
g11
asS'pictured'
p4821
(lp4822
g18
asS'piss'
p4823
(lp4824
g8
ag19
asS'available'
p4825
(lp4826
g8
ag4
ag17
ag5
ag26
ag27
ag19
ag11
ag12
asS'solo'
p4827
(lp4828
g5
ag27
ag19
asS'recently'
p4829
(lp4830
g27
ag19
asS'creating'
p4831
(lp4832
g8
ag11
ag12
asS'sold'
p4833
(lp4834
g17
ag26
ag18
ag19
asS'nashville'
p4835
(lp4836
g27
asS'outfit'
p4837
(lp4838
g5
asS'nienaber'
p4839
(lp4840
g18
asS'slated'
p4841
(lp4842
g18
asS'lyrical'
p4843
(lp4844
g27
asS'c'
(lp4845
g8
ag4
ag17
ag5
ag26
ag27
ag18
ag19
ag11
ag12
asS'last'
p4846
(lp4847
g8
ag4
ag17
ag5
ag26
ag27
ag18
ag19
ag12
asS'mega'
p4848
(lp4849
g26
ag19
ag11
asS'restaurant'
p4850
(lp4851
g17
ag27
asS'annual'
p4852
(lp4853
g4
ag27
asS'thor'
p4854
(lp4855
g17
asS'thinking'
p4856
(lp4857
g19
asS'forgotten'
p4858
(lp4859
g27
asS'bond'
p4860
(lp4861
g19
asS'whole'
p4862
(lp4863
g18
ag19
asS'flies'
p4864
(lp4865
g18
asS'flier'
p4866
(lp4867
g5
asS'point'
p4868
(lp4869
g8
ag4
ag26
ag19
ag11
ag12
asS'reasons'
p4870
(lp4871
g19
asS'smith'
p4872
(lp4873
g4
ag5
ag27
ag18
asS'spyderharrison'
p4874
(lp4875
g8
asS'whatever'
p4876
(lp4877
g11
asS'iphones'
p4878
(lp4879
g11
ag12
asS'cosentino'
p4880
(lp4881
g27
asS'chant'
p4882
(lp4883
g18
asS'mission'
p4884
(lp4885
g4
ag19
asS'along'
p4886
(lp4887
g4
ag18
ag19
ag12
asS'expensive'
p4888
(lp4889
g17
asS'pr'
p4890
(lp4891
g8
ag4
ag17
ag5
ag26
ag27
ag18
ag19
ag11
ag12
asS'blog'
p4892
(lp4893
g17
ag19
ag11
asS'devil'
p4894
(lp4895
g19
asS'raise'
p4896
(lp4897
g4
ag27
asS'pt'
p4898
(lp4899
g8
ag4
ag17
ag5
ag26
ag27
ag18
ag19
ag11
ag12
asS'duo'
p4900
(lp4901
g18
asS'dud'
p4902
(lp4903
g26
asS'due'
p4904
(lp4905
g17
ag5
ag18
asS'teacher'
p4906
(lp4907
g27
asS'pc'
p4908
(lp4909
g8
ag26
ag27
ag19
ag11
ag12
asS'secret'
p4910
(lp4911
g19
ag12
asS'dropping'
p4912
(lp4913
g11
asS'damn'
p4914
(lp4915
g8
ag4
ag17
ag26
ag19
asS'pg'
p4916
(lp4917
g8
ag27
ag19
ag11
asS'pile'
p4918
(lp4919
g26
asS'senatorjohn'
p4920
(lp4921
g4
asS'meeting'
p4922
(lp4923
g18
ag19
ag11
asS'empty'
p4924
(lp4925
g12
asS'pm'
p4926
(lp4927
g8
ag4
ag17
ag27
ag18
ag19
ag11
ag12
asS'flight'
p4928
(lp4929
g4
asS'inglourious'
p4930
(lp4931
g19
asS'gay'
p4932
(lp4933
g18
asS'boy'
p4934
(lp4935
g4
ag17
ag5
ag19
ag11
asS'fire'
p4936
(lp4937
g17
ag11
asS'gen'
p4938
(lp4939
g4
ag5
ag18
ag19
ag11
ag12
asS'else'
p4940
(lp4941
g8
ag4
ag5
asS'anthony'
p4942
(lp4943
g4
ag19
asS'awake'
p4944
(lp4945
g4
ag19
asS'migrantcrisis'
p4946
(lp4947
g18
asS'cinch'
p4948
(lp4949
g17
asS'demand'
p4950
(lp4951
g27
asS'prices'
p4952
(lp4953
g17
ag19
asS'rocking'
p4954
(lp4955
g4
asS'saintsfan'
p4956
(lp4957
g19
asS'bild'
p4958
(lp4959
g18
asS'politician'
p4960
(lp4961
g18
asS'look'
p4962
(lp4963
g8
ag4
ag17
ag5
ag26
ag27
ag18
ag19
ag11
ag12
asS'solid'
p4964
(lp4965
g27
asS'straight'
p4966
(lp4967
g17
ag5
ag27
ag19
ag12
asS'estimations'
p4968
(lp4969
g17
asS'elections'
p4970
(lp4971
g18
asS'warehouse'
p4972
(lp4973
g19
asS'replaced'
p4974
(lp4975
g8
asS'kick'
p4976
(lp4977
g4
ag18
ag19
ag12
asS'error'
p4978
(lp4979
g8
asS'fun'
p4980
(lp4981
g8
ag4
ag26
ag27
ag19
ag11
asS'guide'
p4982
(lp4983
g12
asS'engineers'
p4984
(lp4985
g8
asS'vod'
p4986
(lp4987
g17
asS'real'
p4988
(lp4989
g4
ag5
ag26
ag27
ag18
ag19
ag11
ag12
asS'hoping'
p4990
(lp4991
g17
ag26
ag19
ag11
ag12
asS'voters'
p4992
(lp4993
g27
asS'cents'
p4994
(lp4995
g17
asS'dickblood'
p4996
(lp4997
g19
asS'reads'
p4998
(lp4999
g18
asS'ouya'
p5000
(lp5001
g17
asS'skype'
p5002
(lp5003
g8
asS'ready'
p5004
(lp5005
g4
ag17
ag5
ag26
ag19
ag11
ag12
asS'twcarena'
p5006
(lp5007
g27
asS'witnessing'
p5008
(lp5009
g26
asS'squigz'
p5010
(lp5011
g8
asS'chase'
p5012
(lp5013
g8
ag17
ag5
ag26
ag19
asS'funny'
p5014
(lp5015
g26
ag27
ag19
asS'shirt'
p5016
(lp5017
g4
ag5
ag19
ag12
asS'sociologist'
p5018
(lp5019
g5
asS'shay'
p5020
(lp5021
g17
asS'shorter'
p5022
(lp5023
g19
asS'palmcoast'
p5024
(lp5025
g8
asS'viola'
p5026
(lp5027
g27
asS'grand'
p5028
(lp5029
g4
ag18
asS'eww'
p5030
(lp5031
g19
asS'ottawamorning'
p5032
(lp5033
g4
asS'higher'
p5034
(lp5035
g26
asS'development'
p5036
(lp5037
g19
asS'used'
p5038
(lp5039
g17
ag5
ag26
asS'tupperware'
p5040
(lp5041
g26
asS'forced'
p5042
(lp5043
g18
asS'bonus'
p5044
(lp5045
g5
asS'banter'
p5046
(lp5047
g4
asS'yesterday'
p5048
(lp5049
g4
ag5
ag19
asS'popcorn'
p5050
(lp5051
g12
asS'moment'
p5052
(lp5053
g8
ag26
asS'funtimes'
p5054
(lp5055
g4
asS'arrived'
p5056
(lp5057
g5
ag11
asS'user'
p5058
(lp5059
g17
ag11
ag12
asS'realm'
p5060
(lp5061
g19
asS'weird'
p5062
(lp5063
g26
asS'recent'
p5064
(lp5065
g4
ag27
ag19
asS'dark'
p5066
(lp5067
g4
asS'travers'
p5068
(lp5069
g4
asS'tugs'
p5070
(lp5071
g19
asS'nbauer'
p5072
(lp5073
g4
asS'redesigned'
p5074
(lp5075
g11
asS'spent'
p5076
(lp5077
g8
ag17
ag5
ag11
asS'picks'
p5078
(lp5079
g19
asS'person'
p5080
(lp5081
g8
ag27
ag19
ag11
asS'edge'
p5082
(lp5083
g26
ag19
ag11
ag12
asS'services'
p5084
(lp5085
g5
asS'itttttt'
p5086
(lp5087
g4
asS'theatres'
p5088
(lp5089
g19
asS'chemistry'
p5090
(lp5091
g11
asS'spend'
p5092
(lp5093
g8
ag5
ag18
ag19
asS'tim'
p5094
(lp5095
g8
ag4
ag17
ag5
ag26
ag27
ag18
ag19
ag11
ag12
asS'exploits'
p5096
(lp5097
g8
asS'listening'
p5098
(lp5099
g4
asS'ceo'
p5100
(lp5101
g8
ag12
asS'desk'
p5102
(lp5103
g12
asS'reviewed'
p5104
(lp5105
g17
asS'southpaw'
p5106
(lp5107
g19
asS'wews'
p5108
(lp5109
g26
asS'questions'
p5110
(lp5111
g18
asS'using'
p5112
(lp5113
g8
ag26
ag12
asS'reviewer'
p5114
(lp5115
g17
asS'wearable'
p5116
(lp5117
g12
asS'columnista'
p5118
(lp5119
g18
asS'profitable'
p5120
(lp5121
g12
asS'cut'
p5122
(lp5123
g4
ag17
ag5
ag27
ag19
asS'tablet'
p5124
(lp5125
g8
ag17
ag5
asS'jacksters'
p5126
(lp5127
g19
asS'sprinter'
p5128
(lp5129
g26
asS'admission'
p5130
(lp5131
g4
asS'guaranteed'
p5132
(lp5133
g17
ag5
asS'regrets'
p5134
(lp5135
g19
asS'snag'
p5136
(lp5137
g17
asS'signals'
p5138
(lp5139
g18
asS'cue'
p5140
(lp5141
g4
ag5
ag11
asS'parents'
p5142
(lp5143
g19
asS'alpharetta'
p5144
(lp5145
g19
asS'crying'
p5146
(lp5147
g18
asS'snap'
p5148
(lp5149
g8
ag4
ag19
asS'input'
p5150
(lp5151
g11
asS'honor'
p5152
(lp5153
g19
asS'easter'
p5154
(lp5155
g17
ag26
ag27
ag19
asS'excited'
p5156
(lp5157
g8
ag4
ag5
ag26
ag27
ag19
ag11
asS'useless'
p5158
(lp5159
g26
ag19
asS'kentstateusg'
p5160
(lp5161
g27
asS'complaint'
p5162
(lp5163
g17
ag26
asS'manage'
p5164
(lp5165
g5
ag18
asS'march'
p5166
(lp5167
g8
ag17
ag18
ag12
asS'retarded'
p5168
(lp5169
g18
asS'big'
p5170
(lp5171
g4
ag17
ag5
ag26
ag18
ag19
ag11
ag12
asS'couple'
p5172
(lp5173
g4
ag17
ag5
ag18
asS'unlimited'
p5174
(lp5175
g5
asS'tiring'
p5176
(lp5177
g8
ag4
asS'thatwasgoat'
p5178
(lp5179
g4
asS'game'
p5180
(lp5181
g8
ag4
ag17
ag5
ag26
ag18
ag19
ag11
ag12
asS'quest'
p5182
(lp5183
g4
ag5
ag18
ag19
asS'cbsboston'
p5184
(lp5185
g4
asS'cuteness'
p5186
(lp5187
g27
asS'emma'
p5188
(lp5189
g27
ag18
asS'bit'
p5190
(lp5191
g8
ag17
ag5
ag26
ag19
ag11
ag12
asS'projects'
p5192
(lp5193
g11
asS'tomorrowapplwatcher'
p5194
(lp5195
sS'inviting'
p5196
(lp5197
g8
asS'according'
p5198
(lp5199
g18
asS'ignore'
p5200
(lp5201
g26
ag19
asS'arthur'
p5202
(lp5203
g4
asS'surging'
p5204
(lp5205
g19
asS'liz'
p5206
(lp5207
g8
ag4
ag5
ag26
ag18
ag12
asS'olney'
p5208
(lp5209
g17
asS'fault'
p5210
(lp5211
g8
asS'healthy'
p5212
(lp5213
g12
asS'sketch'
p5214
(lp5215
g27
asS'google'
p5216
(lp5217
g8
ag17
ag18
ag11
asS'gardening'
p5218
(lp5219
g8
ag12
asS'parade'
p5220
(lp5221
g5
asS'fucking'
p5222
(lp5223
g4
ag17
ag27
asS'spring'
p5224
(lp5225
g19
ag12
asS'fitness'
p5226
(lp5227
g12
asS'back'
p5228
(lp5229
g8
ag4
ag17
ag27
ag18
ag19
ag11
ag12
asS'silentcoda'
p5230
(lp5231
g17
asS'streaming'
p5232
(lp5233
g5
ag11
asS'trends'
p5234
(lp5235
g27
asS'loads'
p5236
(lp5237
g5
asS'pala'
p5238
(lp5239
g4
ag19
asS'goodnews'
p5240
(lp5241
g26
asS'oddly'
p5242
(lp5243
g11
asS'cocacola'
p5244
(lp5245
g8
asS'darthgm'
p5246
(lp5247
g5
asS'senseless'
p5248
(lp5249
g18
asS'delivered'
p5250
(lp5251
g17
ag5
asS'pet'
p5252
(lp5253
g8
ag5
ag26
ag27
ag19
ag12
asS'aftertheholiday'
p5254
(lp5255
g4
asS'exceeding'
p5256
(lp5257
g26
asS'per'
p5258
(lp5259
g8
ag4
ag17
ag5
ag26
ag27
ag18
ag19
ag11
ag12
asS'seller'
p5260
(lp5261
g17
asS'innovation'
p5262
(lp5263
g8
asS'epic'
p5264
(lp5265
g4
ag27
ag19
asS'invade'
p5266
(lp5267
g18
asS'snort'
p5268
(lp5269
g18
asS'cgi'
p5270
(lp5271
g19
asS'eating'
p5272
(lp5273
g8
ag17
ag26
ag27
ag11
ag12
asS'robbery'
p5274
(lp5275
g19
asS'bb'
p5276
(lp5277
g4
ag5
ag26
ag27
ag18
ag19
ag12
asS'bc'
p5278
(lp5279
g8
ag4
ag17
ag5
ag27
ag18
asS'remembered'
p5280
(lp5281
g4
asS'word'
p5282
(lp5283
g8
ag5
ag27
ag19
ag11
asS'bn'
p5284
(lp5285
g5
asS'kelsey'
p5286
(lp5287
g4
asS'continuing'
p5288
(lp5289
g19
asS'bi'
p5290
(lp5291
g8
ag4
ag17
ag5
ag26
ag27
ag18
ag19
ag11
ag12
asS'aerosmith'
p5292
(lp5293
g4
asS'bp'
p5294
(lp5295
g8
ag19
asS'nowhere'
p5296
(lp5297
g19
asS'chick'
p5298
(lp5299
g11
asS'stomps'
p5300
(lp5301
g19
asS'carol'
p5302
(lp5303
g19
asS'sporty'
p5304
(lp5305
g12
asS'roundup'
p5306
(lp5307
g17
asS'adds'
p5308
(lp5309
g12
asS'anything'
p5310
(lp5311
g17
ag26
ag19
ag11
asS'netflix'
p5312
(lp5313
g5
ag19
asS'justopolistv'
p5314
(lp5315
g5
asS'watchos'
p5316
(lp5317
g11
asS'wanna'
p5318
(lp5319
g4
ag17
ag27
ag19
asS'ppl'
p5320
(lp5321
g8
ag17
ag26
ag18
ag19
ag11
ag12
asS'undoing'
p5322
(lp5323
g17
asS'namaste'
p5324
(lp5325
g8
asS'garbage'
p5326
(lp5327
g26
asS'retweeted'
p5328
(lp5329
g11
asS'within'
p5330
(lp5331
g12
asS'retailer'
p5332
(lp5333
g26
asS'menmarch'
p5334
(lp5335
g8
asS'momma'
p5336
(lp5337
g5
asS'nmiuga'
p5338
(lp5339
g11
asS'canal'
p5340
(lp5341
g26
asS'impressed'
p5342
(lp5343
g4
ag19
asS'criticisms'
p5344
(lp5345
g18
asS'statistics'
p5346
(lp5347
g11
asS'kirsty'
p5348
(lp5349
g27
asS'sneaky'
p5350
(lp5351
g5
asS'smilelikepink'
p5352
(lp5353
g4
asS'ew'
p5354
(lp5355
g8
ag4
ag17
ag5
ag26
ag27
ag18
ag19
ag11
ag12
asS'apparently'
p5356
(lp5357
g18
ag19
ag11
asS'fiver'
p5358
(lp5359
g19
asS'question'
p5360
(lp5361
g18
ag19
asS'long'
p5362
(lp5363
g4
ag27
ag18
ag19
ag11
ag12
asS'doubt'
p5364
(lp5365
g27
ag19
asS'suit'
p5366
(lp5367
g17
ag5
ag19
ag12
asS'forward'
p5368
(lp5369
g4
ag17
ag19
asS'bored'
p5370
(lp5371
g17
asS'footage'
p5372
(lp5373
g19
asS'opens'
p5374
(lp5375
g19
asS'record'
p5376
(lp5377
g17
ag26
ag18
ag19
asS'elsewhere'
p5378
(lp5379
g5
asS'atop'
p5380
(lp5381
g19
asS'immigration'
p5382
(lp5383
g18
asS'glamour'
p5384
(lp5385
g27
asS'boys'
p5386
(lp5387
g4
ag19
ag11
asS'link'
p5388
(lp5389
g8
ag17
ag26
ag18
asS'russian'
p5390
(lp5391
g18
asS'line'
p5392
(lp5393
g8
ag17
ag5
ag27
ag19
ag11
asS'hyping'
p5394
(lp5395
g19
asS'probablydrunk'
p5396
(lp5397
g19
asS'nutshell'
p5398
(lp5399
g26
asS'posted'
p5400
(lp5401
g19
asS'info'
p5402
(lp5403
g8
ag17
ag27
ag18
ag12
asS'laziest'
p5404
(lp5405
g27
asS'us'
p5406
(lp5407
g8
ag4
ag17
ag5
ag26
ag27
ag18
ag19
ag11
ag12
asS'ur'
p5408
(lp5409
g8
ag4
ag17
ag5
ag26
ag27
ag18
ag19
ag11
ag12
asS'um'
p5410
(lp5411
g8
ag4
ag17
ag5
ag26
ag27
ag18
ag19
ag11
ag12
asS'windows'
p5412
(lp5413
g8
ag4
ag11
asS'un'
p5414
(lp5415
g8
ag4
ag17
ag5
ag26
ag27
ag18
ag19
ag11
ag12
asS'uh'
p5416
(lp5417
g5
ag26
asS'uk'
p5418
(lp5419
g8
ag4
ag17
ag5
ag27
ag18
ag19
ag11
asS'derspiegel'
p5420
(lp5421
g18
asS'highlight'
p5422
(lp5423
g19
ag11
asS'z'
(lp5424
g8
ag4
ag17
ag5
ag26
ag27
ag18
ag19
ag12
asS'called'
p5425
(lp5426
g17
ag26
ag19
asS'uber'
p5427
(lp5428
g18
ag11
asS'flop'
p5429
(lp5430
g12
asS'ordered'
p5431
(lp5432
g8
ag17
ag5
ag26
ag19
ag12
asS'fans'
p5433
(lp5434
g8
ag11
asS'influence'
p5435
(lp5436
g12
asS'lyf'
p5437
(lp5438
g4
asS'warning'
p5439
(lp5440
g27
asS'evening'
p5441
(lp5442
g17
ag19
ag12
asS'dre'
p5443
(lp5444
g4
ag17
ag5
ag26
ag27
ag18
ag19
ag11
ag12
asS'chat'
p5445
(lp5446
g17
ag5
ag27
ag19
asS'apropos'
p5447
(lp5448
g19
asS'basterds'
p5449
(lp5450
g19
asS'kerry'
p5451
(lp5452
g27
asS'graham'
p5453
(lp5454
g11
asS'halifax'
p5455
(lp5456
g19
asS'bthousto'
p5457
(lp5458
g19
asS'facebook'
p5459
(lp5460
g11
asS'disappoints'
p5461
(lp5462
g26
asS'rainy'
p5463
(lp5464
g19
asS'reaganitegoper'
p5465
(lp5466
g18
asS'peace'
p5467
(lp5468
g26
ag18
asS'laughing'
p5469
(lp5470
g19
asS'thinks'
p5471
(lp5472
g18
asS'politicians'
p5473
(lp5474
g18
asS'bracket'
p5475
(lp5476
g26
asS'actors'
p5477
(lp5478
g19
asS'itsnotastar'
p5479
(lp5480
g19
asS'ntastic'
p5481
(lp5482
g19
asS'nice'
p5483
(lp5484
g17
ag5
ag19
ag12
asS'shrug'
p5485
(lp5486
g27
asS'lena'
p5487
(lp5488
g27
asS'llvm'
p5489
(lp5490
g8
asS'halen'
p5491
(lp5492
g4
asS'users'
p5493
(lp5494
g17
ag11
asS'reportedly'
p5495
(lp5496
g17
asS'favourite'
p5497
(lp5498
g19
asS'xiaomi'
p5499
(lp5500
g12
asS'occurred'
p5501
(lp5502
g19
asS'utterly'
p5503
(lp5504
g18
asS'reservation'
p5505
(lp5506
g27
asS'charming'
p5507
(lp5508
g19
asS'structure'
p5509
(lp5510
g19
asS'ago'
p5511
(lp5512
g8
ag17
ag19
asS'statesman'
p5513
(lp5514
g18
asS'e'
(lp5515
g8
ag4
ag17
ag5
ag26
ag27
ag18
ag19
ag11
ag12
asS'dvd'
p5516
(lp5517
g17
ag27
asS'age'
p5518
(lp5519
g4
ag17
ag5
ag26
ag27
ag18
ag19
ag11
asS'youtube'
p5520
(lp5521
g19
asS'walked'
p5522
(lp5523
g4
asS'shoutout'
p5524
(lp5525
g19
asS'impatient'
p5526
(lp5527
g5
asS'depth'
p5528
(lp5529
g18
asS'beverage'
p5530
(lp5531
g19
asS'presenting'
p5532
(lp5533
g8
asS'narrative'
p5534
(lp5535
g17
asS'everywhere'
p5536
(lp5537
g18
asS'reserve'
p5538
(lp5539
g8
ag12
asS'requires'
p5540
(lp5541
g11
asS'hello'
p5542
(lp5543
g8
ag4
asS'gt'
p5544
(lp5545
g8
ag5
ag26
ag27
ag18
ag19
ag11
asS'jason'
p5546
(lp5547
g4
asS'saying'
p5548
(lp5549
g17
ag5
ag27
ag11
asS'hooks'
p5550
(lp5551
g12
asS'sqlserver'
p5552
(lp5553
g8
asS'results'
p5554
(lp5555
g17
ag26
asS'steve'
p5556
(lp5557
g4
ag5
asS'groceries'
p5558
(lp5559
g19
asS'gb'
p5560
(lp5561
g8
ag17
ag5
ag19
asS'ga'
p5562
(lp5563
g8
ag4
ag17
ag5
ag26
ag27
ag18
ag19
ag11
ag12
asS'go'
p5564
(lp5565
g8
ag4
ag17
ag5
ag26
ag27
ag18
ag19
ag11
ag12
asS'conversation'
p5566
(lp5567
g19
asS'contributions'
p5568
(lp5569
g8
asS'inundated'
p5570
(lp5571
g11
asS'fried'
p5572
(lp5573
g19
asS'young'
p5574
(lp5575
g4
ag18
asS'send'
p5576
(lp5577
g12
asS'suits'
p5578
(lp5579
g5
asS'helps'
p5580
(lp5581
g8
ag19
asS'stable'
p5582
(lp5583
g8
ag18
asS'suite'
p5584
(lp5585
g17
ag19
asS'ridiculousness'
p5586
(lp5587
g27
asS'include'
p5588
(lp5589
g17
ag27
asS'sent'
p5590
(lp5591
g8
ag17
ag5
ag27
ag18
ag19
asS'nindorkknight'
p5592
(lp5593
g19
asS'fly'
p5594
(lp5595
g8
ag4
ag5
ag27
asS'gino'
p5596
(lp5597
g4
asS'outside'
p5598
(lp5599
g18
asS'continues'
p5600
(lp5601
g19
asS'wave'
p5602
(lp5603
g8
asS'tue'
p5604
(lp5605
g8
ag4
ag17
ag5
ag27
ag18
ag19
ag11
ag12
asS'putting'
p5606
(lp5607
g18
asS'sexist'
p5608
(lp5609
g27
asS'cellular'
p5610
(lp5611
g11
asS'coalition'
p5612
(lp5613
g18
asS'telling'
p5614
(lp5615
g12
asS'gadget'
p5616
(lp5617
g12
asS'drinking'
p5618
(lp5619
g26
asS'bestbuy'
p5620
(lp5621
g12
asS'wa'
p5622
(lp5623
g8
ag4
ag17
ag5
ag26
ag27
ag18
ag19
ag11
ag12
asS'smarter'
p5624
(lp5625
g12
asS'francois'
p5626
(lp5627
g18
asS'augment'
p5628
(lp5629
g5
asS'gender'
p5630
(lp5631
g19
asS'michael'
p5632
(lp5633
g17
ag18
ag19
asS'eve'
p5634
(lp5635
g8
ag4
ag17
ag5
ag26
ag27
ag18
ag19
ag11
ag12
asS'ryan'
p5636
(lp5637
g8
asS'try'
p5638
(lp5639
g8
ag4
ag17
ag5
ag27
ag18
ag19
ag11
asS'roku'
p5640
(lp5641
g5
asS'race'
p5642
(lp5643
g8
ag27
ag19
ag11
asS'gauge'
p5644
(lp5645
g26
asS'challenge'
p5646
(lp5647
g17
asS'logistics'
p5648
(lp5649
g26
asS'overloaded'
p5650
(lp5651
g8
asS'carter'
p5652
(lp5653
g19
asS'goodies'
p5654
(lp5655
g19
asS'reuters'
p5656
(lp5657
g18
ag12
asS'msftnews'
p5658
(lp5659
g8
asS'video'
p5660
(lp5661
g8
ag5
ag27
ag18
ag19
ag11
asS'traveling'
p5662
(lp5663
g5
asS'hungary'
p5664
(lp5665
g18
asS'download'
p5666
(lp5667
g8
ag4
ag5
ag12
asS'makers'
p5668
(lp5669
g19
asS'plays'
p5670
(lp5671
g4
ag27
ag19
asS'power'
p5672
(lp5673
g4
ag5
ag27
ag18
ag19
asS'showcase'
p5674
(lp5675
g11
asS'giving'
p5676
(lp5677
g26
asS'enjoyed'
p5678
(lp5679
g19
asS'access'
p5680
(lp5681
g12
asS'paying'
p5682
(lp5683
g5
ag19
asS'waiting'
p5684
(lp5685
g5
ag19
ag11
ag12
asS'ahhhhh'
p5686
(lp5687
g5
asS'exercise'
p5688
(lp5689
g12
asS'body'
p5690
(lp5691
g4
ag5
ag26
ag27
ag18
ag19
ag11
asS'whsmith'
p5692
(lp5693
g5
asS'led'
p5694
(lp5695
g8
ag4
ag17
ag5
ag26
ag27
ag18
ag19
ag12
asS'lee'
p5696
(lp5697
g8
ag4
ag17
ag26
ag27
ag19
ag11
asS'stance'
p5698
(lp5699
g18
ag12
asS'bcause'
p5700
(lp5701
g27
asS'grafted'
p5702
(lp5703
g19
asS'eminem'
p5704
(lp5705
g4
asS'nishelo'
p5706
(lp5707
g18
asS'let'
p5708
(lp5709
g8
ag4
ag17
ag5
ag27
ag18
ag19
ag11
ag12
asS'sink'
p5710
(lp5711
g18
asS'euro'
p5712
(lp5713
g18
asS'macworld'
p5714
(lp5715
g12
asS'downsview'
p5716
(lp5717
g4
asS'irritating'
p5718
(lp5719
g19
asS'ukraine'
p5720
(lp5721
g18
asS'great'
p5722
(lp5723
g8
ag17
ag5
ag26
ag18
ag19
ag12
asS'amreading'
p5724
(lp5725
g17
asS'expectactions'
p5726
(lp5727
g19
asS'survivor'
p5728
(lp5729
g5
asS'credits'
p5730
(lp5731
g19
asS'receive'
p5732
(lp5733
g17
ag26
ag19
asS'involved'
p5734
(lp5735
g8
ag17
asS'bundyb'
p5736
(lp5737
g8
asS'theming'
p5738
(lp5739
g12
asS'suggests'
p5740
(lp5741
g18
asS'mcelhearn'
p5742
(lp5743
g17
asS'products'
p5744
(lp5745
g11
asS'missus'
p5746
(lp5747
g19
asS'maccoll'
p5748
(lp5749
g27
asS'residents'
p5750
(lp5751
g19
asS'vukosi'
p5752
(lp5753
g8
asS'makes'
p5754
(lp5755
g27
ag19
ag12
asS'weekends'
p5756
(lp5757
g19
asS'thats'
p5758
(lp5759
g17
asS'tat'
p5760
(lp5761
g8
ag4
ag17
ag5
ag27
ag18
ag19
ag11
ag12
asS'named'
p5762
(lp5763
g26
ag19
asS'firefox'
p5764
(lp5765
g11
asS'apple'
p5766
(lp5767
g8
ag17
ag26
ag11
ag12
asS'win'
p5768
(lp5769
g8
ag4
ag17
ag26
ag27
ag18
ag19
ag11
ag12
asS'app'
p5770
(lp5771
g8
ag4
ag17
ag5
ag26
ag27
ag18
ag19
ag11
ag12
asS'siri'
p5772
(lp5773
g17
ag11
asS'api'
p5774
(lp5775
g17
asS'zizek'
p5776
(lp5777
g18
asS'apply'
p5778
(lp5779
g8
ag18
asS'gimmick'
p5780
(lp5781
g26
asS'cloud'
p5782
(lp5783
g8
ag4
ag17
ag27
asS'lime'
p5784
(lp5785
g12
asS'use'
p5786
(lp5787
g8
ag4
ag17
ag5
ag26
ag27
ag19
ag11
ag12
asS'crap'
p5788
(lp5789
g26
asS'usa'
p5790
(lp5791
g4
ag17
ag19
ag12
asS'remains'
p5792
(lp5793
g19
asS'next'
p5794
(lp5795
g8
ag4
ag17
ag5
ag26
ag27
ag18
ag19
ag11
ag12
asS'audiophile'
p5796
(lp5797
g11
asS'capri'
p5798
(lp5799
g4
asS'camera'
p5800
(lp5801
g26
asS'teroterotero'
p5802
(lp5803
g12
asS'availability'
p5804
(lp5805
g12
asS'toy'
p5806
(lp5807
g12
asS'panel'
p5808
(lp5809
g27
asS'chip'
p5810
(lp5811
g12
asS'fey'
p5812
(lp5813
g27
ag19
asS'babe'
p5814
(lp5815
g19
asS'comparison'
p5816
(lp5817
g19
asS'started'
p5818
(lp5819
g5
ag19
asS'fizzbuttoncc'
p5820
(lp5821
g4
asS'chrismcfeely'
p5822
(lp5823
g19
asS'confused'
p5824
(lp5825
g5
asS'folks'
p5826
(lp5827
g11
asS'train'
p5828
(lp5829
g27
ag19
asS'babu'
p5830
(lp5831
g11
asS'agent'
p5832
(lp5833
g19
asS'baby'
p5834
(lp5835
g26
ag27
asS'central'
p5836
(lp5837
g27
ag11
asS'mockingjaypart'
p5838
(lp5839
g17
asS'ajweald'
p5840
(lp5841
g18
asS'minions'
p5842
(lp5843
g19
asS'whisky'
p5844
(lp5845
g4
asS'customer'
p5846
(lp5847
g8
ag17
asS'topic'
p5848
(lp5849
g8
ag27
ag18
asS'account'
p5850
(lp5851
g8
ag5
asS'announcing'
p5852
(lp5853
g5
ag11
asS'f'
(lp5854
g8
ag4
ag17
ag5
ag26
ag27
ag18
ag19
ag11
ag12
asS'ride'
p5855
(lp5856
g4
asS'oh'
p5857
(lp5858
g8
ag4
ag17
ag5
ag26
ag27
ag19
asS'tuning'
p5859
(lp5860
g11
asS'monster'
p5861
(lp5862
g11
ag12
asS'obvious'
p5863
(lp5864
g19
asS'thin'
p5865
(lp5866
g8
ag4
ag17
ag5
ag26
ag27
ag18
ag19
ag11
ag12
asS'praise'
p5867
(lp5868
g27
asS'meet'
p5869
(lp5870
g8
ag17
ag18
ag19
ag11
asS'closing'
p5871
(lp5872
g18
asS'drops'
p5873
(lp5874
g17
asS'biscuit'
p5875
(lp5876
g19
asS'performed'
p5877
(lp5878
g26
ag27
asS'control'
p5879
(lp5880
g27
ag18
asS'predecessor'
p5881
(lp5882
g18
asS'streamed'
p5883
(lp5884
g11
asS'reserved'
p5885
(lp5886
g8
asS'katherine'
p5887
(lp5888
g27
asS'lock'
p5889
(lp5890
g8
ag19
ag12
asS'matinee'
p5891
(lp5892
g19
asS'high'
p5893
(lp5894
g8
ag4
ag17
ag5
ag26
ag27
ag19
ag11
asS'something'
p5895
(lp5896
g8
ag17
ag5
ag27
ag19
ag11
asS'stories'
p5897
(lp5898
g27
ag12
asS'lamb'
p5899
(lp5900
g19
asS'sir'
p5901
(lp5902
g8
ag17
ag11
asS'united'
p5903
(lp5904
g27
ag12
asS'docking'
p5905
(lp5906
g17
asS'lame'
p5907
(lp5908
g5
ag26
ag18
asS'vibe'
p5909
(lp5910
g19
asS'six'
p5911
(lp5912
g4
asS'thelegendblue'
p5913
(lp5914
g11
asS'instead'
p5915
(lp5916
g17
ag27
ag19
asS'struggled'
p5917
(lp5918
g19
asS'comedy'
p5919
(lp5920
g4
ag17
ag27
asS'stock'
p5921
(lp5922
g17
ag12
asS'stop'
p5923
(lp5924
g8
ag5
ag18
asS'highs'
p5925
(lp5926
g4
asS'vesperakiri'
p5927
(lp5928
g17
asS'winners'
p5929
(lp5930
g12
asS'collection'
p5931
(lp5932
g17
asS'hitched'
p5933
(lp5934
g4
asS'britishgashelp'
p5935
(lp5936
g17
asS'wrist'
p5937
(lp5938
g12
asS'men'
p5939
(lp5940
g8
ag4
ag17
ag5
ag26
ag27
ag18
ag19
ag11
ag12
asS'hahahaha'
p5941
(lp5942
g12
asS'upstate'
p5943
(lp5944
g19
asS'realized'
p5945
(lp5946
g4
ag26
asS'clarkson'
p5947
(lp5948
g5
asS'famous'
p5949
(lp5950
g27
asS'xenophobic'
p5951
(lp5952
g18
asS'bing'
p5953
(lp5954
g8
ag27
ag18
ag19
asS'sit'
p5955
(lp5956
g8
ag4
ag17
ag27
ag19
ag11
asS'correspond'
p5957
(lp5958
g8
asS'obama'
p5959
(lp5960
g18
asS'honestly'
p5961
(lp5962
g11
asS'agenda'
p5963
(lp5964
g19
asS'foxreg'
p5965
(lp5966
g18
asS'alloy'
p5967
(lp5968
g12
asS'leftwing'
p5969
(lp5970
g27
asS'addiction'
p5971
(lp5972
g5
asS'counted'
p5973
(lp5974
g18
asS'joebelfiore'
p5975
(lp5976
g8
asS'producer'
p5977
(lp5978
g8
ag27
asS'insight'
p5979
(lp5980
g26
asS'outlook'
p5981
(lp5982
g12
asS'thedrum'
p5983
(lp5984
g26
asS'including'
p5985
(lp5986
g17
ag26
asS'looks'
p5987
(lp5988
g8
ag5
ag27
ag19
ag11
ag12
asS'mentioned'
p5989
(lp5990
g8
asS'spytty'
p5991
(lp5992
g19
asS'brandrepublic'
p5993
(lp5994
g5
asS'warren'
p5995
(lp5996
g8
ag19
asS'perfect'
p5997
(lp5998
g19
asS'superior'
p5999
(lp6000
g8
asS'vell'
p6001
(lp6002
g17
ag19
asS'la'
p6003
(lp6004
g8
ag4
ag17
ag5
ag26
ag27
ag18
ag19
ag11
ag12
asS'chosen'
p6005
(lp6006
g12
asS'feminazi'
p6007
(lp6008
g27
asS'labor'
p6009
(lp6010
g4
asS'whether'
p6011
(lp6012
g19
asS'lt'
p6013
(lp6014
g8
ag4
ag17
ag5
ag26
ag18
ag19
ag11
ag12
asS'willing'
p6015
(lp6016
g27
asS'paperclip'
p6017
(lp6018
g8
asS'holiday'
p6019
(lp6020
g4
ag17
ag5
ag26
asS'edging'
p6021
(lp6022
g19
asS'techcrunch'
p6023
(lp6024
g12
asS'pending'
p6025
(lp6026
g8
ag17
ag5
asS'rsvp'
p6027
(lp6028
g8
asS'dad'
p6029
(lp6030
g19
asS'lookoutboston'
p6031
(lp6032
g4
asS'smhowzow'
p6033
(lp6034
g19
asS'greater'
p6035
(lp6036
g12
asS'washington'
p6037
(lp6038
g27
ag18
asS'spell'
p6039
(lp6040
g27
ag19
asS'multiculturalism'
p6041
(lp6042
g18
asS'flew'
p6043
(lp6044
g4
asS'toshiba'
p6045
(lp6046
g8
asS'dat'
p6047
(lp6048
g8
ag17
ag5
ag26
ag27
ag19
ag11
ag12
asS'mention'
p6049
(lp6050
g8
ag19
asS'jamiscoates'
p6051
(lp6052
g4
asS'hands'
p6053
(lp6054
g8
ag19
ag12
asS'front'
p6055
(lp6056
g12
asS'day'
p6057
(lp6058
g8
ag4
ag17
ag5
ag26
ag27
ag18
ag19
ag11
ag12
asS'strive'
p6059
(lp6060
g4
asS'darcy'
p6061
(lp6062
g4
asS'nfl'
p6063
(lp6064
g4
ag17
ag18
ag12
asS'cider'
p6065
(lp6066
g8
asS'tues'
p6067
(lp6068
g8
ag4
ag17
ag5
ag27
ag18
ag19
ag11
ag12
asS'registrations'
p6069
(lp6070
g8
asS'dosnt'
p6071
(lp6072
g17
asS'wrangled'
p6073
(lp6074
g19
asS'trap'
p6075
(lp6076
g18
asS'truth'
p6077
(lp6078
g18
ag19
asS'ralphie'
p6079
(lp6080
g27
asS'cliched'
p6081
(lp6082
g19
asS'ratings'
p6083
(lp6084
g19
asS'studios'
p6085
(lp6086
g19
asS'tepid'
p6087
(lp6088
g12
asS'happyprimeday'
p6089
(lp6090
g26
asS'strip'
p6091
(lp6092
g27
ag11
asS'product'
p6093
(lp6094
g8
ag11
ag12
asS'related'
p6095
(lp6096
g17
ag5
ag19
asS'bluetooth'
p6097
(lp6098
g26
asS'books'
p6099
(lp6100
g17
ag5
asS'thirteen'
p6101
(lp6102
g26
asS'letran'
p6103
(lp6104
g19
asS'witness'
p6105
(lp6106
g4
ag26
ag19
asS'ebooks'
p6107
(lp6108
g17
asS'paulgallen'
p6109
(lp6110
g8
asS'entertainment'
p6111
(lp6112
g4
asS'announces'
p6113
(lp6114
g11
asS'rep'
p6115
(lp6116
g8
ag17
ag5
ag26
ag27
ag18
ag19
ag12
asS'joinsuperleague'
p6117
(lp6118
g19
asS'mate'
p6119
(lp6120
g4
ag27
ag19
asS'messenger'
p6121
(lp6122
g11
asS'performs'
p6123
(lp6124
g27
asS'hilarious'
p6125
(lp6126
g27
ag11
asS'electronics'
p6127
(lp6128
g12
asS'cause'
p6129
(lp6130
g4
ag17
ag26
ag27
ag19
asS'snl'
p6131
(lp6132
g27
asS'red'
p6133
(lp6134
g8
ag4
ag17
ag5
ag26
ag27
ag18
ag19
ag11
ag12
asS'obsess'
p6135
(lp6136
g4
ag11
asS'shut'
p6137
(lp6138
g27
asS'bostonfest'
p6139
(lp6140
g12
asS'umbrella'
p6141
(lp6142
g5
asS'dictionary'
p6143
(lp6144
g8
asS'wines'
p6145
(lp6146
g17
asS'jill'
p6147
(lp6148
g5
ag27
asS'que'
p6149
(lp6150
g4
ag17
ag5
ag27
ag18
ag19
ag11
asS'york'
p6151
(lp6152
g4
ag27
asS'rejoice'
p6153
(lp6154
g27
asS'tomcc'
p6155
(lp6156
g17
ag11
asS'scary'
p6157
(lp6158
g27
asS'yard'
p6159
(lp6160
g26
asS'g'
(lp6161
g8
ag4
ag17
ag5
ag26
ag27
ag18
ag19
ag11
ag12
asS'rockorbustworldtour'
p6162
(lp6163
g4
asS'dubbed'
p6164
(lp6165
g26
asS'could'
p6166
(lp6167
g8
ag17
ag5
ag26
ag11
asS'membership'
p6168
(lp6169
g5
ag18
asS'keep'
p6170
(lp6171
g4
ag26
ag27
ag19
ag11
ag12
asS'intoxicated'
p6172
(lp6173
g19
asS'starin'
p6174
(lp6175
g19
asS'adrian'
p6176
(lp6177
g8
asS'davis'
p6178
(lp6179
g27
asS'repeats'
p6180
(lp6181
g8
asS'mad'
p6182
(lp6183
g8
ag4
ag17
ag5
ag27
ag19
ag11
ag12
asS'kendall'
p6184
(lp6185
g18
asS'lovato'
p6186
(lp6187
g27
asS'appt'
p6188
(lp6189
g11
asS'xadhityourmark'
p6190
(lp6191
g12
asS'pga'
p6192
(lp6193
g27
asS'newiphone'
p6194
(lp6195
g11
asS'powerful'
p6196
(lp6197
g18
asS'chadnwalker'
p6198
(lp6199
g5
asS'flatmate'
p6200
(lp6201
g27
asS'echo'
p6202
(lp6203
g17
asS'bitch'
p6204
(lp6205
g19
asS'owner'
p6206
(lp6207
g8
ag5
ag11
asS'cousin'
p6208
(lp6209
g19
asS'heroes'
p6210
(lp6211
g19
asS'owning'
p6212
(lp6213
g5
asS'disaster'
p6214
(lp6215
g26
asS'playlist'
p6216
(lp6217
g4
asS'sadly'
p6218
(lp6219
g27
asS'fair'
p6220
(lp6221
g17
ag27
ag19
asS'los'
p6222
(lp6223
g4
ag17
ag5
ag27
ag18
ag19
ag11
asS'festival'
p6224
(lp6225
g8
ag4
ag18
asS'data'
p6226
(lp6227
g8
asS'assure'
p6228
(lp6229
g19
asS'system'
p6230
(lp6231
g8
ag4
ag17
asS'avengers'
p6232
(lp6233
g19
asS'mikkic'
p6234
(lp6235
g4
asS'racist'
p6236
(lp6237
g26
ag18
asS'countries'
p6238
(lp6239
g11
asS'final'
p6240
(lp6241
g8
ag5
ag26
ag27
ag19
asS'testing'
p6242
(lp6243
g5
asS'stars'
p6244
(lp6245
g17
ag19
asS'adaptor'
p6246
(lp6247
g5
asS'vine'
p6248
(lp6249
g19
asS'nobody'
p6250
(lp6251
g18
asS'aiesec'
p6252
(lp6253
g8
asS'depressing'
p6254
(lp6255
g11
asS'jerries'
p6256
(lp6257
g27
asS'wsjd'
p6258
(lp6259
g11
asS'july'
p6260
(lp6261
g4
ag17
ag26
ag18
ag19
ag12
asS'chrisatrocket'
p6262
(lp6263
g12
asS'wishlist'
p6264
(lp6265
g26
asS'ipad'
p6266
(lp6267
g8
ag11
ag12
asS'loved'
p6268
(lp6269
g5
ag19
ag12
asS'ben'
p6270
(lp6271
g17
ag27
ag12
asS'boring'
p6272
(lp6273
g19
asS'riches'
p6274
(lp6275
g17
asS'submitted'
p6276
(lp6277
g8
asS'bitteroldmantweet'
p6278
(lp6279
g26
asS'rocsidiaz'
p6280
(lp6281
g8
asS'sweden'
p6282
(lp6283
g18
asS'poehler'
p6284
(lp6285
g27
asS'light'
p6286
(lp6287
g4
ag17
ag27
ag19
ag11
asS'beatlesdiva'
p6288
(lp6289
g19
asS'bet'
p6290
(lp6291
g8
ag5
ag26
ag27
ag18
ag19
ag12
asS'clip'
p6292
(lp6293
g8
ag19
asS'comfortable'
p6294
(lp6295
g27
asS'tonight'
p6296
(lp6297
g4
ag5
ag27
ag19
ag11
asS'gentle'
p6298
(lp6299
g19
asS'heroesincolor'
p6300
(lp6301
g19
asS'hrmusicshare'
p6302
(lp6303
g4
asS'portrait'
p6304
(lp6305
g27
asS'need'
p6306
(lp6307
g8
ag17
ag5
ag27
ag18
ag19
asS'redmond'
p6308
(lp6309
g8
asS'turn'
p6310
(lp6311
g8
ag4
ag17
ag5
ag26
ag18
ag19
ag12
asS'border'
p6312
(lp6313
g18
asS'q'
(lp6314
g8
ag4
ag17
ag5
ag26
ag27
ag18
ag19
ag11
ag12
asS'lilf'
p6315
(lp6316
g19
asS'congrats'
p6317
(lp6318
g8
ag19
asS'studying'
p6319
(lp6320
g27
asS'able'
p6321
(lp6322
g8
ag4
ag17
ag5
ag26
ag27
ag18
ag19
ag11
ag12
asS'admittance'
p6323
(lp6324
g18
asS'mix'
p6325
(lp6326
g19
asS'dundascactus'
p6327
(lp6328
g4
asS'concerns'
p6329
(lp6330
g18
asS'brianshall'
p6331
(lp6332
g12
asS'catalog'
p6333
(lp6334
g19
asS'asshole'
p6335
(lp6336
g19
asS'coke'
p6337
(lp6338
g18
asS'toughest'
p6339
(lp6340
g27
asS'brazil'
p6341
(lp6342
g18
asS'livehackstwo'
p6343
(lp6344
g11
asS'adieu'
p6345
(lp6346
g12
asS'nytimes'
p6347
(lp6348
g18
asS'wha'
p6349
(lp6350
g17
ag5
ag19
ag11
asS'centre'
p6351
(lp6352
g8
ag12
asS'trndnl'
p6353
(lp6354
g27
ag18
asS'expires'
p6355
(lp6356
g5
asS'scenes'
p6357
(lp6358
g19
asS'mimics'
p6359
(lp6360
g12
asS'courtesy'
p6361
(lp6362
g5
asS'supplychain'
p6363
(lp6364
g26
asS'pym'
p6365
(lp6366
g19
asS'device'
p6367
(lp6368
g11
ag12
asS'segment'
p6369
(lp6370
g27
asS'class'
p6371
(lp6372
g4
ag17
ag27
ag19
ag11
ag12
asS'deny'
p6373
(lp6374
g18
asS'crew'
p6375
(lp6376
g11
ag12
asS'mikewolf'
p6377
(lp6378
g8
asS'stronger'
p6379
(lp6380
g12
asS'face'
p6381
(lp6382
g8
ag4
ag27
ag19
ag11
asS'looked'
p6383
(lp6384
g26
ag19
asS'strawberries'
p6385
(lp6386
g5
asS'gesture'
p6387
(lp6388
g18
asS'fiasco'
p6389
(lp6390
g17
asS'north'
p6391
(lp6392
g27
ag19
asS'away'
p6393
(lp6394
g19
ag11
asS'fact'
p6395
(lp6396
g8
ag26
ag11
asS'parker'
p6397
(lp6398
g19
asS'upgradeyourworld'
p6399
(lp6400
g8
asS'chances'
p6401
(lp6402
g19
asS'agreed'
p6403
(lp6404
g27
asS'physique'
p6405
(lp6406
g27
asS'anyway'
p6407
(lp6408
g19
asS'tarif'
p6409
(lp6410
g17
asS'planning'
p6411
(lp6412
g4
ag18
ag19
asS'chancel'
p6413
(lp6414
g18
asS'rough'
p6415
(lp6416
g4
ag17
ag27
ag18
ag19
ag12
asS'asylum'
p6417
(lp6418
g18
asS'debate'
p6419
(lp6420
g18
ag19
asS'decade'
p6421
(lp6422
g17
ag18
asS'partners'
p6423
(lp6424
g18
asS'apollo'
p6425
(lp6426
g27
asS'based'
p6427
(lp6428
g27
ag19
ag12
asS'jay'
p6429
(lp6430
g4
ag17
ag19
asS'miniseries'
p6431
(lp6432
g19
asS'ngo'
p6433
(lp6434
g8
ag17
ag12
asS'hopeful'
p6435
(lp6436
g8
ag17
ag5
ag19
asS'brighten'
p6437
(lp6438
g8
asS'controls'
p6439
(lp6440
g18
asS'jan'
p6441
(lp6442
g17
ag26
ag27
ag18
ag19
asS'jam'
p6443
(lp6444
g4
ag17
ag27
asS'lemme'
p6445
(lp6446
g5
asS'fuel'
p6447
(lp6448
g5
asS'local'
p6449
(lp6450
g17
ag5
ag27
ag19
asS'hope'
p6451
(lp6452
g8
ag4
ag17
ag5
ag27
ag18
ag19
ag11
ag12
asS'applelive'
p6453
(lp6454
g11
asS'meant'
p6455
(lp6456
g4
ag17
ag5
asS'move'
p6457
(lp6458
g17
ag18
ag19
ag11
asS'handle'
p6459
(lp6460
g4
asS'abba'
p6461
(lp6462
g4
asS'means'
p6463
(lp6464
g17
ag5
ag19
ag11
asS'beat'
p6465
(lp6466
g8
ag4
ag26
ag19
ag11
ag12
asS'goosebumps'
p6467
(lp6468
g11
asS'katiegburke'
p6469
(lp6470
g17
asS'lucky'
p6471
(lp6472
g4
ag19
asS'bear'
p6473
(lp6474
g27
asS'sipping'
p6475
(lp6476
g4
asS'tbh'
p6477
(lp6478
g4
ag5
ag19
asS'pricecbs'
p6479
(lp6480
g26
asS'words'
p6481
(lp6482
g5
asS'bluray'
p6483
(lp6484
g17
asS'webcast'
p6485
(lp6486
g4
asS'gomezupdate'
p6487
(lp6488
g27
asS'kardashians'
p6489
(lp6490
g27
asS'smash'
p6491
(lp6492
g5
asS'evolution'
p6493
(lp6494
g11
ag12
asS'timesxxxx'
p6495
(lp6496
g5
asS'nurburgring'
p6497
(lp6498
g11
asS'trucks'
p6499
(lp6500
g12
asS'brain'
p6501
(lp6502
g8
asS'h'
(lp6503
g8
ag4
ag17
ag5
ag26
ag27
ag18
ag19
ag11
ag12
asS'differential'
p6504
(lp6505
g17
asS'fixes'
p6506
(lp6507
g8
asS'calling'
p6508
(lp6509
g8
ag18
asS'motherhood'
p6510
(lp6511
g18
asS'stuff'
p6512
(lp6513
g8
ag17
ag5
ag26
ag19
ag11
asS'cr'
p6514
(lp6515
g8
ag4
ag17
ag5
ag26
ag27
ag18
ag19
ag11
ag12
asS'wish'
p6516
(lp6517
g4
ag17
ag5
ag26
ag19
ag11
asS'tlist'
p6518
(lp6519
g19
asS'grab'
p6520
(lp6521
g4
ag17
asS'fixed'
p6522
(lp6523
g26
asS'predictive'
p6524
(lp6525
g8
asS'btw'
p6526
(lp6527
g18
asS'j'
(lp6528
g8
ag4
ag17
ag5
ag26
ag27
ag18
ag19
ag11
ag12
asS'national'
p6529
(lp6530
g18
asS'omitting'
p6531
(lp6532
g19
asS'edition'
p6533
(lp6534
g17
asS'computer'
p6535
(lp6536
g8
ag12
asS'powder'
p6537
(lp6538
g26
asS'modestomargaretsbelly'
p6539
(lp6540
sS'greece'
p6541
(lp6542
g18
ag19
asS'signalnoise'
p6543
(lp6544
g4
asS'humane'
p6545
(lp6546
g18
asS'scoured'
p6547
(lp6548
g17
asS'packed'
p6549
(lp6550
g19
ag12
asS'parallels'
p6551
(lp6552
g12
asS'luckiest'
p6553
(lp6554
g27
asS'walking'
p6555
(lp6556
g12
asS'superhero'
p6557
(lp6558
g19
asS'nationwide'
p6559
(lp6560
g8
asS'attempting'
p6561
(lp6562
g8
asS'superb'
p6563
(lp6564
g19
asS'bitethepain'
p6565
(lp6566
g17
asS'discounts'
p6567
(lp6568
g26
asS'state'
p6569
(lp6570
g8
ag27
ag18
ag19
ag12
asS'despi'
p6571
(lp6572
g4
ag26
ag11
asS'closed'
p6573
(lp6574
g4
asS'simms'
p6575
(lp6576
g8
asS'satyanadella'
p6577
(lp6578
g8
asS'bunch'
p6579
(lp6580
g11
asS'marichalar'
p6581
(lp6582
g4
asS'email'
p6583
(lp6584
g8
ag17
ag5
ag19
ag12
asS'mispeedway'
p6585
(lp6586
g8
asS'bought'
p6587
(lp6588
g4
ag17
ag5
ag19
ag11
ag12
asS'publishers'
p6589
(lp6590
g17
asS'keynote'
p6591
(lp6592
g8
ag11
asS'ability'
p6593
(lp6594
g19
ag12
asS'monomirror'
p6595
(lp6596
g17
asS'opening'
p6597
(lp6598
g19
asS'deliver'
p6599
(lp6600
g17
ag5
ag26
ag12
asS'omn'
p6601
(lp6602
g12
asS'kicking'
p6603
(lp6604
g19
asS'job'
p6605
(lp6606
g8
ag4
ag17
ag18
ag19
asS'merry'
p6607
(lp6608
g27
asS'kev'
p6609
(lp6610
g19
asS'swift'
p6611
(lp6612
g4
ag27
asS'nominations'
p6613
(lp6614
g27
asS'monitor'
p6615
(lp6616
g5
asS'figured'
p6617
(lp6618
g19
asS'instant'
p6619
(lp6620
g17
asS'buster'
p6621
(lp6622
g12
asS'limits'
p6623
(lp6624
g8
ag18
asS'saiten'
p6625
(lp6626
g5
asS'minutes'
p6627
(lp6628
g8
ag5
ag19
ag11
asS'invited'
p6629
(lp6630
g8
ag12
asS'minds'
p6631
(lp6632
g11
asS'trips'
p6633
(lp6634
g12
asS'etc'
p6635
(lp6636
g17
ag27
ag18
asS'interesting'
p6637
(lp6638
g11
ag12
asS'invites'
p6639
(lp6640
g12
asS'backpack'
p6641
(lp6642
g12
asS'co'
p6643
(lp6644
g8
ag4
ag17
ag5
ag26
ag27
ag18
ag19
ag11
ag12
asS'author'
p6645
(lp6646
g17
asS'gone'
p6647
(lp6648
g26
ag19
asS'wall'
p6649
(lp6650
g4
ag26
ag19
asS'tuesday'
p6651
(lp6652
g8
ag4
ag17
ag5
ag27
ag18
ag19
ag11
ag12
asS'rva'
p6653
(lp6654
g8
ag27
asS'fanboys'
p6655
(lp6656
g11
asS'cd'
p6657
(lp6658
g8
ag4
ag5
ag18
asS'laugh'
p6659
(lp6660
g27
ag19
asS'debtblag'
p6661
(lp6662
g5
asS'leaked'
p6663
(lp6664
g27
ag12
asS'winning'
p6665
(lp6666
g4
ag17
asS'multiculturals'
p6667
(lp6668
g8
asS'jazzstandardnyc'
p6669
(lp6670
g27
asS'debt'
p6671
(lp6672
g5
ag18
asS'yay'
p6673
(lp6674
g26
ag11
ag12
asS'gillette'
p6675
(lp6676
g4
asS'decent'
p6677
(lp6678
g19
asS'sara'
p6679
(lp6680
g8
ag19
asS'bbc'
p6681
(lp6682
g5
ag18
asS'charts'
p6683
(lp6684
g4
asS'cent'
p6685
(lp6686
g8
ag4
ag17
ag26
ag27
ag18
ag19
ag11
ag12
asS'gopro'
p6687
(lp6688
g11
asS'msapc'
p6689
(lp6690
g8
asS'treat'
p6691
(lp6692
g8
ag5
ag19
asS'ah'
p6693
(lp6694
g8
ag4
ag5
ag26
ag27
ag19
ag11
ag12
asS'utilizing'
p6695
(lp6696
g8
asS'sona'
p6697
(lp6698
g8
ag27
ag18
asS'universal'
p6699
(lp6700
g8
asS'choose'
p6701
(lp6702
g5
ag11
asS'field'
p6703
(lp6704
g4
asS'inbound'
p6705
(lp6706
g8
asS'releasing'
p6707
(lp6708
g17
asS'bulk'
p6709
(lp6710
g26
asS'policy'
p6711
(lp6712
g27
ag18
asS'finished'
p6713
(lp6714
g17
ag27
ag19
asS'planner'
p6715
(lp6716
g11
asS'kicks'
p6717
(lp6718
g4
ag19
asS'consecutive'
p6719
(lp6720
g19
asS'msadvanalytics'
p6721
(lp6722
g8
asS'present'
p6723
(lp6724
g8
ag27
ag18
ag19
asS'wins'
p6725
(lp6726
g18
ag19
asS'unlike'
p6727
(lp6728
g17
asS'myk'
p6729
(lp6730
g5
asS'qualcomm'
p6731
(lp6732
g8
asS'owns'
p6733
(lp6734
g8
ag4
ag19
asS'wild'
p6735
(lp6736
g5
ag27
asS'pits'
p6737
(lp6738
g5
asS'watson'
p6739
(lp6740
g27
asS'compton'
p6741
(lp6742
g19
asS'powells'
p6743
(lp6744
g27
asS'almost'
p6745
(lp6746
g8
ag5
ag19
asS'demo'
p6747
(lp6748
g8
asS'googlealerts'
p6749
(lp6750
g18
asS'fandomreviews'
p6751
(lp6752
g19
asS'surface'
p6753
(lp6754
g8
ag11
asS'jelly'
p6755
(lp6756
g17
asS'hardware'
p6757
(lp6758
g11
asS'vs'
p6759
(lp6760
g8
ag17
ag19
asS'watched'
p6761
(lp6762
g5
ag19
asS'claimed'
p6763
(lp6764
g26
asS'partner'
p6765
(lp6766
g8
ag18
asS'jenner'
p6767
(lp6768
g19
asS'ing'
p6769
(lp6770
g8
ag4
ag17
ag5
ag26
ag27
ag18
ag19
ag11
ag12
asS'hehehehehe'
p6771
(lp6772
g19
asS'beats'
p6773
(lp6774
g26
ag19
ag11
ag12
asS'shiny'
p6775
(lp6776
g26
asS'perhaps'
p6777
(lp6778
g18
asS'vintage'
p6779
(lp6780
g4
asS'funniest'
p6781
(lp6782
g19
asS'autism'
p6783
(lp6784
g26
asS'member'
p6785
(lp6786
g4
ag5
ag26
ag27
ag18
ag19
ag11
ag12
asS'guns'
p6787
(lp6788
g4
asS'parts'
p6789
(lp6790
g26
ag12
asS'largest'
p6791
(lp6792
g12
asS'inch'
p6793
(lp6794
g17
asS'party'
p6795
(lp6796
g8
ag17
ag27
ag19
ag11
ag12
asS'android'
p6797
(lp6798
g17
ag11
ag12
asS'gets'
p6799
(lp6800
g4
ag27
asS'privileged'
p6801
(lp6802
g8
asS'conflicting'
p6803
(lp6804
g18
asS'ball'
p6805
(lp6806
g5
ag19
ag12
asS'slightly'
p6807
(lp6808
g19
asS'iot'
p6809
(lp6810
g8
ag18
asS'ios'
p6811
(lp6812
g17
ag19
asS'collab'
p6813
(lp6814
g11
asS'nightly'
p6815
(lp6816
g19
asS'compared'
p6817
(lp6818
g26
ag27
asS'student'
p6819
(lp6820
g27
ag18
ag19
asS'dust'
p6821
(lp6822
g26
asS'metlife'
p6823
(lp6824
g4
asS'requests'
p6825
(lp6826
g4
asS'identity'
p6827
(lp6828
g4
asS'retard'
p6829
(lp6830
g5
ag18
asS'ashley'
p6831
(lp6832
g4
asS'center'
p6833
(lp6834
g8
ag27
asS'records'
p6835
(lp6836
g17
ag26
asS'wearabletech'
p6837
(lp6838
g12
asS'well'
p6839
(lp6840
g17
ag5
ag26
ag27
ag18
ag19
asS'unpacked'
p6841
(lp6842
g12
asS'thought'
p6843
(lp6844
g8
ag17
ag27
ag19
asS'idiot'
p6845
(lp6846
g18
asS'oops'
p6847
(lp6848
g17
ag5
asS'jailbreak'
p6849
(lp6850
g12
asS'sets'
p6851
(lp6852
g5
asS'position'
p6853
(lp6854
g27
asS'audio'
p6855
(lp6856
g26
ag11
asS'drawing'
p6857
(lp6858
g12
asS'latest'
p6859
(lp6860
g18
asS'cupertino'
p6861
(lp6862
g12
asS'praising'
p6863
(lp6864
g19
asS'dosh'
p6865
(lp6866
g8
asS'stores'
p6867
(lp6868
g17
ag12
asS'subscribers'
p6869
(lp6870
g5
asS'cried'
p6871
(lp6872
g5
asS'less'
p6873
(lp6874
g8
ag4
ag5
ag26
ag27
ag18
ag19
asS'liked'
p6875
(lp6876
g19
asS'appleevent'
p6877
(lp6878
g8
ag11
asS'seats'
p6879
(lp6880
g11
asS'sarkisian'
p6881
(lp6882
g5
asS'happiness'
p6883
(lp6884
g17
asS'amc'
p6885
(lp6886
g19
asS'yahoofinance'
p6887
(lp6888
g12
asS'trudi'
p6889
(lp6890
g17
asS'podcast'
p6891
(lp6892
g19
asS'drunk'
p6893
(lp6894
g5
ag19
asS'sky'
p6895
(lp6896
g8
ag4
asS'capabilities'
p6897
(lp6898
g12
asS'realize'
p6899
(lp6900
g4
ag26
asS'googling'
p6901
(lp6902
g19
asS'battery'
p6903
(lp6904
g12
asS'add'
p6905
(lp6906
g8
ag17
ag5
ag26
ag27
ag19
ag12
asS'valid'
p6907
(lp6908
g19
asS'crack'
p6909
(lp6910
g5
asS'evelovelock'
p6911
(lp6912
g19
asS'unprecedented'
p6913
(lp6914
g11
asS'smart'
p6915
(lp6916
g8
ag27
ag19
ag12
asS'details'
p6917
(lp6918
g11
asS'tests'
p6919
(lp6920
g18
asS'northeastern'
p6921
(lp6922
g27
asS'motorhead'
p6923
(lp6924
g4
asS'branch'
p6925
(lp6926
g8
asS'government'
p6927
(lp6928
g18
asS'checking'
p6929
(lp6930
g12
asS'chancellor'
p6931
(lp6932
g18
asS'fyi'
p6933
(lp6934
g8
ag19
ag11
asS'thicker'
p6935
(lp6936
g12
asS'cruz'
p6937
(lp6938
g19
asS'formulaic'
p6939
(lp6940
g19
asS'cedar'
p6941
(lp6942
g27
asS'know'
p6943
(lp6944
g8
ag4
ag5
ag27
ag18
ag19
ag11
ag12
asS'announcements'
p6945
(lp6946
g11
asS'press'
p6947
(lp6948
g4
ag17
ag19
ag11
ag12
asS'password'
p6949
(lp6950
g8
asS'peeked'
p6951
(lp6952
g19
asS'laurakfillault'
p6953
(lp6954
g18
asS'showing'
p6955
(lp6956
g17
ag19
asS'like'
p6957
(lp6958
g8
ag4
ag17
ag5
ag26
ag27
ag18
ag19
ag11
ag12
asS'lost'
p6959
(lp6960
g17
ag18
ag19
asS'miami'
p6961
(lp6962
g27
asS'sofa'
p6963
(lp6964
g19
asS'pity'
p6965
(lp6966
g18
asS'loser'
p6967
(lp6968
g18
asS'sized'
p6969
(lp6970
g5
asS'garage'
p6971
(lp6972
g26
asS'martin'
p6973
(lp6974
g4
asS'become'
p6975
(lp6976
g8
ag12
asS'works'
p6977
(lp6978
g8
ag26
ag19
ag12
asS'refugees'
p6979
(lp6980
g18
asS'page'
p6981
(lp6982
g17
ag27
asS'replacement'
p6983
(lp6984
g8
asS'glare'
p6985
(lp6986
g17
asS'shabby'
p6987
(lp6988
g19
asS'eddietrunk'
p6989
(lp6990
g4
asS'twitter'
p6991
(lp6992
g17
ag27
ag18
asS'xboxone'
p6993
(lp6994
g8
asS'self'
p6995
(lp6996
g26
asS'platforms'
p6997
(lp6998
g8
asS'trucker'
p6999
(lp7000
g8
asS'proper'
p7001
(lp7002
g19
asS'home'
p7003
(lp7004
g4
ag5
ag26
ag27
ag19
ag11
ag12
asS'empire'
p7005
(lp7006
g19
asS'cutters'
p7007
(lp7008
g5
asS'happens'
p7009
(lp7010
g26
ag18
asS'est'
p7011
(lp7012
g8
ag4
ag17
ag5
ag26
ag27
ag18
ag19
ag11
ag12
asS'unfunny'
p7013
(lp7014
g27
asS'lead'
p7015
(lp7016
g26
ag18
ag12
asS'billy'
p7017
(lp7018
g11
asS'leak'
p7019
(lp7020
g4
ag27
ag11
ag12
asS'avoid'
p7021
(lp7022
g19
asS'ubs'
p7023
(lp7024
g5
ag12
asS'striking'
p7025
(lp7026
g12
asS'earrings'
p7027
(lp7028
g19
asS'leader'
p7029
(lp7030
g18
ag12
asS'locate'
p7031
(lp7032
g5
asS'whacko'
p7033
(lp7034
g17
asS'grrr'
p7035
(lp7036
g5
asS'accident'
p7037
(lp7038
g12
asS'syrian'
p7039
(lp7040
g18
asS'host'
p7041
(lp7042
g4
ag27
asS'although'
p7043
(lp7044
g19
asS'worthy'
p7045
(lp7046
g17
ag11
asS'amy'
p7047
(lp7048
g27
ag19
asS'timeplay'
p7049
(lp7050
g19
asS'stage'
p7051
(lp7052
g4
ag27
ag11
asS'strikerobi'
p7053
(lp7054
g19
asS'bills'
p7055
(lp7056
g19
asS'actual'
p7057
(lp7058
g27
ag19
asS'getting'
p7059
(lp7060
g4
ag17
ag5
ag26
ag27
ag19
ag11
ag12
asS'longest'
p7061
(lp7062
g19
asS'universe'
p7063
(lp7064
g19
asS'witnesskzn'
p7065
(lp7066
g19
asS'legendary'
p7067
(lp7068
g18
asS'shipping'
p7069
(lp7070
g17
ag5
ag26
asS'surge'
p7071
(lp7072
g26
asS'angeles'
p7073
(lp7074
g27
asS'blessings'
p7075
(lp7076
g19
asS'eastchase'
p7077
(lp7078
g19
asS'cinemasins'
p7079
(lp7080
g19
asS'evangelinelilly'
p7081
(lp7082
g19
asS'urges'
p7083
(lp7084
g18
asS'concession'
p7085
(lp7086
g19
asS'documentary'
p7087
(lp7088
g5
ag19
asS'binge'
p7089
(lp7090
g27
ag19
asS'software'
p7091
(lp7092
g8
ag17
ag26
asS'equally'
p7093
(lp7094
g27
asS'pitter'
p7095
(lp7096
g27
asS'kinda'
p7097
(lp7098
g27
ag19
asS'downgrading'
p7099
(lp7100
g8
asS'political'
p7101
(lp7102
g18
asS'targetnews'
p7103
(lp7104
g8
asS'primedayfail'
p7105
(lp7106
g26
asS'tableware'
p7107
(lp7108
g26
asS'weather'
p7109
(lp7110
g4
ag19
asS'champ'
p7111
(lp7112
g19
asS'registration'
p7113
(lp7114
g8
ag11
asS'dug'
p7115
(lp7116
g27
asS'hang'
p7117
(lp7118
g8
ag4
ag17
ag5
ag27
ag19
ag11
ag12
asS'toddshowusa'
p7119
(lp7120
g12
asS'advert'
p7121
(lp7122
g4
ag5
ag12
asS'van'
p7123
(lp7124
g8
ag4
ag17
ag5
ag26
ag19
asS'machinelearning'
p7125
(lp7126
g8
asS'transfer'
p7127
(lp7128
g8
ag12
asS'amazonprimeday'
p7129
(lp7130
g26
asS'apps'
p7131
(lp7132
g8
ag18
ag12
asS'spots'
p7133
(lp7134
g26
asS'threat'
p7135
(lp7136
g26
ag18
ag19
asS'biggest'
p7137
(lp7138
g26
asS'yrs'
p7139
(lp7140
g18
asS'buy'
p7141
(lp7142
g4
ag17
ag5
ag26
ag19
ag11
ag12
asS'alexa'
p7143
(lp7144
g17
asS'tina'
p7145
(lp7146
g27
asS'chatting'
p7147
(lp7148
g19
asS'hr'
p7149
(lp7150
g4
ag17
ag5
ag26
ag27
ag18
ag19
ag11
ag12
asS'hp'
p7151
(lp7152
g8
ag18
ag19
asS'bitches'
p7153
(lp7154
g19
asS'newtimesbroward'
p7155
(lp7156
g27
asS'delivery'
p7157
(lp7158
g17
ag5
ag26
ag12
asS'hi'
p7159
(lp7160
g8
ag4
ag17
ag5
ag26
ag27
ag18
ag19
ag11
ag12
asS'delivers'
p7161
(lp7162
g5
asS'ha'
p7163
(lp7164
g8
ag4
ag17
ag5
ag26
ag27
ag18
ag19
ag11
ag12
asS'eat'
p7165
(lp7166
g8
ag4
ag17
ag5
ag26
ag27
ag18
ag19
ag11
ag12
asS'unfollow'
p7167
(lp7168
g11
asS'made'
p7169
(lp7170
g8
ag17
ag5
ag27
ag11
ag12
asS'compute'
p7171
(lp7172
g8
ag12
asS'spectacular'
p7173
(lp7174
g19
asS'campus'
p7175
(lp7176
g27
asS'ecosystem'
p7177
(lp7178
g17
asS'official'
p7179
(lp7180
g19
ag11
asS'lync'
p7181
(lp7182
g8
asS'placed'
p7183
(lp7184
g8
ag5
asS'misanthropester'
p7185
(lp7186
g5
asS'limit'
p7187
(lp7188
g8
ag4
ag5
ag18
asS'mcpe'
p7189
(lp7190
g17
asS'hand'
p7191
(lp7192
g8
ag4
ag5
ag18
ag19
ag12
asS'theresa'
p7193
(lp7194
g18
asS'problem'
p7195
(lp7196
g5
ag18
ag19
ag12
asS'piece'
p7197
(lp7198
g27
asS'doingjusticeishine'
p7199
(lp7200
g17
asS'kasweshilwiimbo'
p7201
(lp7202
g8
asS'godspell'
p7203
(lp7204
g27
asS'iphone'
p7205
(lp7206
g11
ag12
asS'handset'
p7207
(lp7208
g8
asS'dailyjulianne'
p7209
(lp7210
g5
asS'goodness'
p7211
(lp7212
g4
asS'fitbit'
p7213
(lp7214
g12
asS'education'
p7215
(lp7216
g8
ag12
asS'eric'
p7217
(lp7218
g8
ag4
ag5
ag27
ag19
asS'inc'
p7219
(lp7220
g8
ag4
ag17
ag5
ag26
ag27
ag18
ag19
ag12
asS'diego'
p7221
(lp7222
g4
asS'suzanne'
p7223
(lp7224
g8
ag18
asS'slipcase'
p7225
(lp7226
g19
asS'fanboy'
p7227
(lp7228
g19
ag11
asS'allow'
p7229
(lp7230
g27
ag19
ag11
asS'guitarist'
p7231
(lp7232
g4
asS'multiverse'
p7233
(lp7234
g19
asS'lately'
p7235
(lp7236
g19
asS'balak'
p7237
(lp7238
g12
asS'book'
p7239
(lp7240
g17
ag5
ag27
ag19
ag11
asS'special'
p7241
(lp7242
g19
ag11
asS'sick'
p7243
(lp7244
g8
ag17
ag5
ag11
asS'incredibly'
p7245
(lp7246
g19
asS'clicks'
p7247
(lp7248
g17
asS'hacker'
p7249
(lp7250
g4
ag17
asS'star'
p7251
(lp7252
g8
ag4
ag17
ag5
ag27
ag18
ag19
ag11
ag12
asS'outsold'
p7253
(lp7254
g26
asS'monday'
p7255
(lp7256
g8
ag4
ag17
ag5
ag26
ag27
ag18
ag19
ag12
asS'bailing'
p7257
(lp7258
g18
asS'innovative'
p7259
(lp7260
g12
asS'tripwireinc'
p7261
(lp7262
g27
asS'june'
p7263
(lp7264
g8
ag27
ag19
ag11
ag12
asS'outlets'
p7265
(lp7266
g17
asS'taytay'
p7267
(lp7268
g11
asS'stay'
p7269
(lp7270
g4
ag27
ag18
ag19
asS'chance'
p7271
(lp7272
g8
ag18
ag19
ag12
asS'backstage'
p7273
(lp7274
g27
asS'smartwatch'
p7275
(lp7276
g12
asS'ceos'
p7277
(lp7278
g8
asS'nintendo'
p7279
(lp7280
g8
asS'stan'
p7281
(lp7282
g17
ag27
ag18
ag19
ag12
asS'badass'
p7283
(lp7284
g27
asS'priced'
p7285
(lp7286
g17
asS'friends'
p7287
(lp7288
g8
ag4
ag27
ag19
ag11
asS'inspiration'
p7289
(lp7290
g8
ag19
asS'amp'
p7291
(lp7292
g8
ag4
ag17
ag5
ag26
ag27
ag18
ag19
ag11
ag12
asS'samsung'
p7293
(lp7294
g11
ag12
asS'ranks'
p7295
(lp7296
g19
asS'starting'
p7297
(lp7298
g5
ag18
ag19
ag11
ag12
asS'npos'
p7299
(lp7300
g8
asS'searched'
p7301
(lp7302
g8
asS'lives'
p7303
(lp7304
g17
ag11
asS'expands'
p7305
(lp7306
g12
asS'nron'
p7307
(lp7308
g19
as.